(lp0
(lp1
F-0.7727730870246887
aF0.18189631402492523
aF-0.608058750629425
aF0.23401476442813873
aF0.23401476442813873
aF-0.30398666858673096
aF0.22535750269889832
aF-0.9256381392478943
aF0.17151512205600739
aF0.17151442170143127
aF-0.12439102679491043
aF0.21661235392093658
aF-0.9683005213737488
aF0.1944296807050705
aF0.19442938268184662
aF0.0456819050014019
aF0.16442689299583435
aF-0.9853308796882629
aF0.19944530725479126
aF0.19944500923156738
aF0.3894718587398529
aF0.09766936302185059
aF-0.9158452153205872
aF0.16140113770961761
aF0.1614026129245758
aI1
aa(lp2
F-0.7718771696090698
aF0.16930700838565826
aF-0.6128137707710266
aF0.2267640084028244
aF0.2267640084028244
aF-0.2981718182563782
aF0.20646271109580994
aF-0.9319155812263489
aF0.1553027331829071
aF0.15530389547348022
aF-0.11659236252307892
aF0.1997162103652954
aF-0.9728924036026001
aF0.17887760698795319
aF0.17887793481349945
aF0.056712228804826736
aF0.14681655168533325
aF-0.987536609172821
aF0.18215961754322052
aF0.18215961754322052
aF0.3976408839225769
aF0.07908773422241211
aF-0.9141262173652649
aF0.1411992907524109
aF0.14120014011859894
aI1
aa(lp3
F-0.7109869122505188
aF0.24189357459545135
aF-0.6602916717529297
aF0.17426718771457672
aF0.17426787316799164
aF-0.20014220476150513
aF0.386391282081604
aF-0.9003581404685974
aF0.3314712643623352
aF0.3314719796180725
aF0.011887519620358944
aF0.35868439078330994
aF-0.9333831071853638
aF0.2923160791397095
aF0.29231691360473633
aF0.20280271768569946
aF0.29862329363822937
aF-0.9325743913650513
aF0.26681509613990784
aF0.26681509613990784
aF0.5597584247589111
aF0.23825174570083618
aF-0.7936665415763855
aF0.2295028269290924
aF0.2295028269290924
aI1
aa(lp4
F-0.6880894899368286
aF0.2405344396829605
aF-0.6845992207527161
aF0.1847418248653412
aF0.18474215269088745
aF-0.18957562744617462
aF0.3141767680644989
aF-0.9302440881729126
aF0.24103742837905884
aF0.24103842675685883
aF0.031138386577367783
aF0.29503995180130005
aF-0.9549773335456848
aF0.22936391830444336
aF0.22936339676380157
aF0.22634097933769226
aF0.24378962814807892
aF-0.9430463314056396
aF0.22702261805534363
aF0.22702261805534363
aF0.5678046941757202
aF0.1688695102930069
aF-0.8056555986404419
aF0.18721552193164825
aF0.18721552193164825
aI1
aa(lp5
F-0.7047421336174011
aF0.14801710844039917
aF-0.6938511729240417
aF0.21152935922145844
aF0.21152935922145844
aF-0.24621236324310303
aF0.24890351295471191
aF-0.9367104768753052
aF0.22860635817050934
aF0.22860687971115112
aF-0.04605814814567566
aF0.2367323487997055
aF-0.9704826474189758
aF0.23482412099838257
aF0.23482437431812286
aF0.13513240218162537
aF0.1308673918247223
aF-0.9821470975875854
aF0.15427744388580322
aF0.15427938103675842
aF0.4481754004955292
aF0.06621601432561874
aF-0.8914899230003357
aF0.13737016916275024
aF0.137369304895401
aI1
aa(lp6
F-0.7035892605781555
aF0.29804661870002747
aF-0.645081639289856
aF0.198778435587883
aF0.19877754151821136
aF-0.20449301600456238
aF0.3708597719669342
aF-0.9058948755264282
aF0.3166044354438782
aF0.31660521030426025
aF0.005028242710977793
aF0.30236509442329407
aF-0.9531788229942322
aF0.3115443289279938
aF0.31154415011405945
aF0.1633131206035614
aF0.07283186912536621
aF-0.9838822484016418
aF0.04705829173326492
aF0.0470595583319664
aF0.4650695025920868
aF-0.06747326999902725
aF-0.8826990723609924
aF0.02365070953965187
aF0.023645667359232903
aI1
aa(lp7
F-0.7541379332542419
aF0.28516143560409546
aF-0.5915732383728027
aF0.1786949336528778
aF0.17869560420513153
aF-0.26310667395591736
aF0.17928755283355713
aF-0.9479613900184631
aF0.31483379006385803
aF0.31483474373817444
aF-0.05859111621975899
aF0.04692140594124794
aF-0.9971787333488464
aF0.32503077387809753
aF0.3250311613082886
aF0.03151087835431099
aF-0.2690926194190979
aF-0.9625986218452454
aF0.05657551437616348
aF0.05657235160470009
aF0.2845495641231537
aF-0.4910554885864258
aF-0.8233444094657898
aF0.04123016819357872
aF0.04123161360621452
aI1
aa(lp8
F-0.4084753096103668
aF0.6903798580169678
aF-0.5970958471298218
aF0.10099617391824722
aF0.10099617391824722
aF0.005422668997198343
aF0.3709244728088379
aF-0.9286472201347351
aF0.2720710337162018
aF0.2720710337162018
aF0.11556003987789154
aF0.1766877919435501
aF-0.9774596095085144
aF0.3032916188240051
aF0.3032916188240051
aF0.08897068351507187
aF-0.0840880274772644
aF-0.9924784302711487
aF0.2041352093219757
aF0.20413638651371002
aF0.21884287893772125
aF-0.40113332867622375
aF-0.8894941806793213
aF0.21517649292945862
aF0.21517761051654816
aI1
aa(lp9
F-0.1651202142238617
aF0.7845669388771057
aF-0.5976537466049194
aF0.025717884302139282
aF0.025722520425915718
aF-0.09694569557905197
aF0.18045711517333984
aF-0.9787935018539429
aF0.06443652510643005
aF0.06443652510643005
aF-0.09556584805250168
aF-0.04326930269598961
aF-0.9944822192192078
aF0.07331310957670212
aF0.07331473380327225
aF-0.11053738743066788
aF-0.19578827917575836
aF-0.9743964672088623
aF0.1171557754278183
aF0.11715730279684067
aF-0.09782183170318604
aF-0.54698646068573
aF-0.8314064741134644
aF0.13209959864616394
aF0.13210049271583557
aI1
aa(lp10
F0.015330947004258633
aF0.7563111782073975
aF-0.6540323495864868
aF0.08991449326276779
aF0.08991449326276779
aF-0.0742064043879509
aF0.14650781452655792
aF-0.9864222407341003
aF0.0411578007042408
aF0.0411578007042408
aF-0.09345289319753647
aF-0.0601375587284565
aF-0.9938058257102966
aF0.05722428858280182
aF0.05722532793879509
aF-0.14001917839050293
aF-0.20412296056747437
aF-0.9688799977302551
aF0.11352358013391495
aF0.11352410912513733
aF-0.18787796795368195
aF-0.5566060543060303
aF-0.8092536330223083
aF0.1354808360338211
aF0.1354803889989853
aI1
aa(lp11
F0.10827632248401642
aF0.6466426849365234
aF-0.7550692558288574
aF0.2154911458492279
aF0.2154914289712906
aF-0.08728905022144318
aF0.05466799810528755
aF-0.9946818351745605
aF0.09053104370832443
aF0.09053104370832443
aF-0.13619153201580048
aF-0.06434588879346848
aF-0.9885905981063843
aF0.11489859223365784
aF0.11489807814359665
aF-0.23736324906349182
aF-0.21050973236560822
aF-0.9483376145362854
aF0.23067577183246613
aF0.23067577183246613
aF-0.3967195749282837
aF-0.5120003819465637
aF-0.7618853449821472
aF0.2391263246536255
aF0.23912683129310608
aI1
aa(lp12
F0.42908185720443726
aF0.06458669155836105
aF-0.9009535312652588
aF0.19999389350414276
aF0.19999389350414276
aF-0.49977704882621765
aF-0.0559740886092186
aF-0.864343523979187
aF0.12000295519828796
aF0.12000295519828796
aF-0.7053201794624329
aF-0.05767634138464928
aF-0.7065384984016418
aF0.06157868355512619
aF0.06158062070608139
aF-0.5801830887794495
aF0.07665866613388062
aF-0.8108705878257751
aF0.06517559289932251
aF0.06517650187015533
aF-0.7905955910682678
aF-0.014176037162542343
aF-0.6121746301651001
aF0.06511791050434113
aF0.06511791050434113
aI1
aa(lp13
F0.5552597045898438
aF0.4414413273334503
aF-0.7048518657684326
aF0.06197452172636986
aF0.061977408826351166
aF-0.009638949297368526
aF0.15779803693294525
aF-0.9874243140220642
aF0.11134332418441772
aF0.1113438606262207
aF-0.2977341115474701
aF-0.03591708838939667
aF-0.9539728760719299
aF0.08045927435159683
aF0.08046001940965652
aF-0.4659729301929474
aF-0.04023018106818199
aF-0.8838839530944824
aF0.17616215348243713
aF0.17616215348243713
aF-0.7737237811088562
aF-0.08182194828987122
aF-0.6282169818878174
aF0.17989514768123627
aF0.17989514768123627
aI1
aa(lp14
F0.5187037587165833
aF0.5151675939559937
aF-0.6823112964630127
aF0.05103151127696037
aF0.05103151127696037
aF-0.43579867482185364
aF-0.014133957214653492
aF-0.8999331593513489
aF0.1106189414858818
aF0.1106189414858818
aF-0.3254603147506714
aF0.004638975486159325
aF-0.9455442428588867
aF0.10897347331047058
aF0.10897292196750641
aF-0.5017497539520264
aF-0.036525268107652664
aF-0.864241361618042
aF0.12249258160591125
aF0.12249208986759186
aF-0.7725418210029602
aF-0.14337079226970673
aF-0.6185660362243652
aF0.11891011893749237
aF0.11891061812639236
aI1
aa(lp15
F-0.848410427570343
aF0.1804504096508026
aF-0.4976317882537842
aF0.2483125478029251
aF0.2483130395412445
aF-0.43838855624198914
aF0.37289339303970337
aF-0.8177810907363892
aF0.14394192397594452
aF0.14394234120845795
aF-0.23980893194675446
aF0.44077685475349426
aF-0.8649898767471313
aF0.16563449800014496
aF0.16563449800014496
aF-0.0554717592895031
aF0.39422059059143066
aF-0.9173402190208435
aF0.16986554861068726
aF0.16986484825611115
aF0.355225145816803
aF0.2909165918827057
aF-0.8883594870567322
aF0.13852404057979584
aF0.13852490484714508
aI1
aa(lp16
F-0.8628353476524353
aF-0.1380041092634201
aF-0.4862819015979767
aF0.27755752205848694
aF0.2775566577911377
aF-0.6067554950714111
aF0.2975578010082245
aF-0.7370937466621399
aF0.1371593475341797
aF0.1371597796678543
aF-0.5127224326133728
aF0.42454883456230164
aF-0.7462398409843445
aF0.13515742123126984
aF0.13515742123126984
aF-0.358683317899704
aF0.5013532638549805
aF-0.787395179271698
aF0.16142746806144714
aF0.1614270955324173
aF-0.006808225065469742
aF0.5983058214187622
aF-0.8012389540672302
aF0.15969830751419067
aF0.1596994400024414
aI1
aa(lp17
F-0.9242277145385742
aF-0.2697289288043976
aF-0.2702765166759491
aF0.22035622596740723
aF0.22035568952560425
aF-0.76910400390625
aF0.3169665038585663
aF-0.5549876093864441
aF0.08891995251178741
aF0.08891861140727997
aF-0.6878268122673035
aF0.46024975180625916
aF-0.5613059401512146
aF0.08121146261692047
aF0.08121220022439957
aF-0.5505506992340088
aF0.5430729389190674
aF-0.6340076923370361
aF0.12060340493917465
aF0.12060290575027466
aF-0.20054872334003448
aF0.6501339077949524
aF-0.7328752279281616
aF0.12217949330806732
aF0.12218046933412552
aI1
aa(lp18
F-0.9580686688423157
aF-0.11075934022665024
aF-0.26426640152931213
aF0.3111187815666199
aF0.3111191689968109
aF-0.7703221440315247
aF0.330905020236969
aF-0.5450738668441772
aF0.09574280679225922
aF0.09574218094348907
aF-0.6628729701042175
aF0.4631636142730713
aF-0.5882847309112549
aF0.09931392222642899
aF0.09931452572345734
aF-0.5127106308937073
aF0.5332293510437012
aF-0.6728999018669128
aF0.11200973391532898
aF0.112009197473526
aF-0.16733258962631226
aF0.6061297655105591
aF-0.777564525604248
aF0.12653131783008575
aF0.12653227150440216
aI1
aa(lp19
F-0.884148895740509
aF0.24977445602416992
aF-0.39483341574668884
aF0.21502095460891724
aF0.21502095460891724
aF-0.45518743991851807
aF0.28943362832069397
aF-0.8420407176017761
aF0.0255271103233099
aF0.025524774566292763
aF-0.27509263157844543
aF0.3711608946323395
aF-0.8868840932846069
aF0.05632513761520386
aF0.05632513761520386
aF-0.09595538675785065
aF0.3633277118206024
aF-0.9267067909240723
aF0.06348158419132233
aF0.06348064541816711
aF0.30108585953712463
aF0.22473348677158356
aF-0.926737368106842
aF0.06863566488027573
aF0.06863479316234589
aI1
aa(lp20
F-0.6891501545906067
aF0.605780839920044
aF-0.3976198732852936
aF0.1383758932352066
aF0.13837502896785736
aF-0.17877472937107086
aF0.6774107813835144
aF-0.7135504484176636
aF0.03626488521695137
aF0.03626488521695137
aF0.028048111125826836
aF0.6909105777740479
aF-0.7223958969116211
aF0.037218980491161346
aF0.037220582365989685
aF0.17819301784038544
aF0.5962952971458435
aF-0.782738208770752
aF0.041648849844932556
aF0.041648849844932556
aF0.5493693351745605
aF0.33470088243484497
aF-0.7656165957450867
aF0.055024776607751846
aF0.055024776607751846
aI1
aa(lp21
F-0.6383078694343567
aF0.7584904432296753
aF-0.13135948777198792
aF0.023896437138319016
aF0.023901425302028656
aF-0.06818356364965439
aF0.9108045697212219
aF-0.4071682095527649
aF0.06971615552902222
aF0.06971615552902222
aF0.1437484174966812
aF0.8907191157341003
aF-0.4312257170677185
aF0.06972557306289673
aF0.06972557306289673
aF0.2544952630996704
aF0.8022327423095703
aF-0.5400508642196655
aF0.07460615783929825
aF0.07460615783929825
aF0.6089391708374023
aF0.48940297961235046
aF-0.6242417097091675
aF0.09730260819196701
aF0.09730260819196701
aI1
aa(lp22
F-0.6121581792831421
aF0.7895526885986328
aF-0.043229881674051285
aF0.12093241512775421
aF0.12093142420053482
aF-0.07292461395263672
aF0.9773131608963013
aF-0.19884897768497467
aF0.17652671039104462
aF0.17652636766433716
aF0.133914977312088
aF0.9693697094917297
aF-0.20588572323322296
aF0.17570683360099792
aF0.1757078617811203
aF0.244842067360878
aF0.9312980771064758
aF-0.2696964144706726
aF0.18105405569076538
aF0.1810530573129654
aF0.5765893459320068
aF0.6947183609008789
aF-0.43001291155815125
aF0.20781803131103516
aF0.20781832933425903
aI1
aa(lp23
F-0.5584144592285156
aF0.8181887865066528
aF0.13689520955085754
aF0.08679235726594925
aF0.08679235726594925
aF0.01873956248164177
aF0.9981565475463867
aF-0.05772560089826584
aF0.20476727187633514
aF0.20476815104484558
aF0.2528896927833557
aF0.9673923254013062
aF-0.014100843109190464
aF0.4345680773258209
aF0.43456849455833435
aF0.3175489902496338
aF0.9336990118026733
aF-0.16543522477149963
aF0.225111186504364
aF0.225111186504364
aF0.6229085326194763
aF0.6870023012161255
aF-0.37418287992477417
aF0.26622578501701355
aF0.2662264406681061
aI1
aa(lp24
F-0.8064318895339966
aF-0.2898539900779724
aF-0.5154144167900085
aF0.3143664598464966
aF0.3143664598464966
aF-0.3858111798763275
aF-0.6831490993499756
aF-0.6200459599494934
aF0.04211719334125519
aF0.04211719334125519
aF-0.1736195981502533
aF-0.7118287086486816
aF-0.6805556416511536
aF0.016776761040091515
aF0.01677320897579193
aF0.006483649834990501
aF-0.7145110964775085
aF-0.6995939612388611
aF0.02280380390584469
aF0.02280380390584469
aF0.3625040352344513
aF-0.6922107934951782
aF-0.6240473985671997
aF0.016637619584798813
aF0.016634035855531693
aI1
aa(lp25
F-0.8905239701271057
aF-0.3540101945400238
aF-0.28573378920555115
aF0.08472560346126556
aF0.08472560346126556
aF-0.35379013419151306
aF-0.8491853475570679
aF-0.3920673727989197
aF0.04407483711838722
aF0.04407483711838722
aF-0.12774276733398438
aF-0.893393874168396
aF-0.4307308495044708
aF0.0541243851184845
aF0.05412217974662781
aF0.07016973942518234
aF-0.8964726328849792
aF-0.4375078082084656
aF0.03891360014677048
aF0.03891360014677048
aF0.423740416765213
aF-0.8550986647605896
aF-0.29874804615974426
aF0.024804649874567986
aF0.024802247062325478
aI1
aa(lp26
F-0.8741117715835571
aF-0.3619985580444336
aF-0.3238604664802551
aF0.001091830083169043
aF0.0009134905994869769
aF-0.2749260663986206
aF-0.9492859840393066
aF-0.15255051851272583
aF0.10122823715209961
aF0.10122764855623245
aF-0.008061051368713379
aF-0.9930846095085144
aF-0.11712348461151123
aF0.10016930103302002
aF0.10016930103302002
aF0.19722101092338562
aF-0.9775152206420898
aF-0.074618861079216
aF0.09527591615915298
aF0.09527654200792313
aF0.4785830080509186
aF-0.8658931255340576
aF0.1455588936805725
aF0.08054673671722412
aF0.08054748177528381
aI1
aa(lp27
F-0.6369378566741943
aF-0.1466314196586609
aF-0.7568416595458984
aF0.004041249398142099
aF0.004070640541613102
aF-0.30450043082237244
aF-0.7649487853050232
aF-0.5675675868988037
aF0.24091079831123352
aF0.2409123033285141
aF-0.145014226436615
aF-0.8994835019111633
aF-0.41218963265419006
aF0.22892098128795624
aF0.22892150282859802
aF-0.02308402769267559
aF-0.9633535742759705
aF-0.26723960041999817
aF0.22056011855602264
aF0.22055956721305847
aF0.1572704315185547
aF-0.9808371067047119
aF0.1149984672665596
aF0.21450185775756836
aF0.214501291513443
aI1
aa(lp28
F-0.17779569327831268
aF-0.9359291791915894
aF-0.30401507019996643
aF0.10599764436483383
aF0.10599708557128906
aF0.5875388383865356
aF-0.6999790072441101
aF-0.40598973631858826
aF0.040452077984809875
aF0.04045502468943596
aF0.7281450629234314
aF-0.5662763118743896
aF-0.3861813247203827
aF0.04302474856376648
aF0.043027520179748535
aF0.8405653834342957
aF-0.4174342155456543
aF-0.3452513813972473
aF0.021365152671933174
aF0.021365152671933174
aF0.9513574838638306
aF-0.2344551682472229
aF-0.1998741626739502
aF0.3569246232509613
aF0.35692477226257324
aI1
aa(lp29
F-0.39890265464782715
aF-0.6622411012649536
aF-0.6342818737030029
aF0.17873148620128632
aF0.17873181402683258
aF0.12392260134220123
aF-0.45684731006622314
aF-0.880871057510376
aF0.02780935913324356
aF0.027811503037810326
aF0.28110137581825256
aF-0.273093044757843
aF-0.920001208782196
aF0.08677241206169128
aF0.08677172660827637
aF0.48433226346969604
aF-0.17146894335746765
aF-0.8579164147377014
aF0.05803662911057472
aF0.05803560093045235
aF0.8222674131393433
aF0.04717602580785751
aF-0.5671425461769104
aF0.060360804200172424
aF0.06036179140210152
aI1
aa(lp30
F-0.7811928391456604
aF-0.12976573407649994
aF-0.6106542944908142
aF0.14079636335372925
aF0.14079593122005463
aF-0.6669101715087891
aF0.24782703816890717
aF-0.7027181386947632
aF0.09484072029590607
aF0.09484009444713593
aF-0.5734121203422546
aF0.3525775074958801
aF-0.7395184636116028
aF0.11574191600084305
aF0.11574191600084305
aF0.5101079344749451
aF-0.5365171432495117
aF-0.6722641587257385
aF1.2045360803604126
aF1.2045358419418335
aF0.1836494505405426
aF0.7534337043762207
aF-0.6313560009002686
aF0.11435610055923462
aF0.11435610055923462
aI1
aa(lp31
F-0.09279900044202805
aF0.7833929657936096
aF-0.6145597696304321
aF0.08273719996213913
aF0.08273936808109283
aF0.3337339460849762
aF0.27888569235801697
aF-0.9004689455032349
aF0.11454660445451736
aF0.11454764753580093
aF0.43981486558914185
aF0.02174796722829342
aF-0.8978250622749329
aF0.1353130340576172
aF0.13531260192394257
aF0.2823966145515442
aF-0.31414511799812317
aF-0.9064022898674011
aF0.257503867149353
aF0.257503867149353
aF0.2806592583656311
aF-0.725131094455719
aF-0.6288204789161682
aF0.2615598142147064
aF0.2615598142147064
aI1
aa(lp32
F-0.5876632928848267
aF0.7215540409088135
aF-0.3660762906074524
aF0.21537265181541443
aF0.21537348628044128
aF-0.2617233693599701
aF0.9462026953697205
aF-0.19026674330234528
aF0.06889590620994568
aF0.06889677047729492
aF0.03810914605855942
aF0.9928625822067261
aF-0.1130114272236824
aF0.07456376403570175
aF0.07456056028604507
aF0.3115632236003876
aF0.9486437439918518
aF-0.05480404198169708
aF0.060763582587242126
aF0.06076260283589363
aF0.7334779500961304
aF0.6660920977592468
aF-0.13539369404315948
aF0.09825021773576736
aF0.09824839234352112
aI1
aa(lp33
F-0.9161754846572876
aF-0.15012967586517334
aF-0.371596097946167
aF0.31045201420783997
aF0.3104512095451355
aF-0.7176989316940308
aF0.13434790074825287
aF-0.6832706928253174
aF0.006818489637225866
aF0.006835951004177332
aF0.3083875775337219
aF-0.6473750472068787
aF-0.6969954371452332
aF1.5634946823120117
aF1.5634950399398804
aF0.27795708179473877
aF-0.6702302098274231
aF-0.688136100769043
aF1.563249945640564
aF1.56325101852417
aF-0.2087925672531128
aF0.7784324884414673
aF-0.5919868350028992
aF0.2451789379119873
aF0.2451786994934082
aI1
aa(lp34
F-0.7935472726821899
aF0.434453547000885
aF-0.426066517829895
aF0.22424732148647308
aF0.22424785792827606
aF-0.24450311064720154
aF0.15444688498973846
aF-0.9572692513465881
aF0.017894264310598373
aF0.0178909320384264
aF-0.33741438388824463
aF0.11419302225112915
aF-0.9344043135643005
aF0.0056942966766655445
aF0.00568381929770112
aF0.024650659412145615
aF0.01577318273484707
aF-0.9995716214179993
aF0.016847671940922737
aF0.016851209104061127
aF-0.06910862028598785
aF0.07245931774377823
aF-0.9949741363525391
aF0.01687241904437542
aF0.016865352168679237
aI2
aa(lp35
F-0.8582717776298523
aF0.3740946352481842
aF-0.35131555795669556
aF0.2024153769016266
aF0.2024153769016266
aF-0.34020861983299255
aF0.12235289812088013
aF-0.9323559999465942
aF0.017513804137706757
aF0.017513804137706757
aF-0.42933768033981323
aF0.08661968261003494
aF-0.8989805579185486
aF0.007209402043372393
aF0.007201129570603371
aF-0.08250004053115845
aF-0.004561110865324736
aF-0.9965806603431702
aF0.01562897302210331
aF0.01563659869134426
aF-0.17217688262462616
aF0.05710848420858383
aF-0.9834091663360596
aF0.018558165058493614
aF0.01855495385825634
aI2
aa(lp36
F-0.6762778759002686
aF0.48991626501083374
aF-0.5501183867454529
aF0.1692410409450531
aF0.1692417412996292
aF-0.04502067714929581
aF0.05298224091529846
aF-0.9975800514221191
aF0.024689026176929474
aF0.02469385601580143
aF-0.13354571163654327
aF0.0192706398665905
aF-0.9908552765846252
aF0.004514955449849367
aF0.004514955449849367
aF0.21977300941944122
aF-0.13214011490345
aF-0.9665603041648865
aF0.023407496511936188
aF0.023410042747855186
aF0.13968491554260254
aF-0.06546247750520706
aF-0.9880297780036926
aF0.01993333175778389
aF0.01992735080420971
aI2
aa(lp37
F-0.581275224685669
aF0.40149158239364624
aF-0.7077595591545105
aF0.17448362708091736
aF0.17448396980762482
aF0.09494855254888535
aF-0.21587222814559937
aF-0.9717941880226135
aF0.02243485487997532
aF0.022440169006586075
aF0.013673779554665089
aF-0.25315362215042114
aF-0.9673293828964233
aF0.00048828125
aF0.0
aF0.36720702052116394
aF-0.3919771611690521
aF-0.843512237071991
aF0.03776441514492035
aF0.0377659946680069
aF0.35468366742134094
aF-0.31200703978538513
aF-0.8813915848731995
aF0.02842211350798607
aF0.02842211350798607
aI2
aa(lp38
F-0.6188551783561707
aF0.37504762411117554
aF-0.6901865601539612
aF0.1606035977602005
aF0.1606035977602005
aF0.0051381345838308334
aF-0.31461215019226074
aF-0.9492063522338867
aF0.021812453866004944
aF0.021815186366438866
aF-0.06691126525402069
aF-0.33212101459503174
aF-0.9408605098724365
aF0.004809017293155193
aF0.004809017293155193
aF0.29450762271881104
aF-0.5102658271789551
aF-0.8080185651779175
aF0.03314894810318947
aF0.03314714878797531
aF0.26788145303726196
aF-0.4703439474105835
aF-0.8408424258232117
aF0.02485266886651516
aF0.02485506609082222
aI2
aa(lp39
F-0.4416676461696625
aF0.2633388042449951
aF-0.8576610088348389
aF0.09981582313776016
aF0.09981702268123627
aF0.39640653133392334
aF0.00329826888628304
aF-0.9180691838264465
aF0.09115064144134521
aF0.09115129709243774
aF0.36690637469291687
aF0.020632989704608917
aF-0.9300289750099182
aF0.07674271613359451
aF0.07674349099397659
aF0.6624822616577148
aF-0.2327621579170227
aF-0.7119965553283691
aF0.08350178599357605
aF0.08349964767694473
aF0.6616753339767456
aF-0.19291888177394867
aF-0.7245467901229858
aF0.04964315518736839
aF0.04964315518736839
aI2
aa(lp40
F-0.22691874206066132
aF0.5527901649475098
aF-0.8018297553062439
aF0.008555404841899872
aF0.008555404841899872
aF0.4222005605697632
aF-0.1687813103199005
aF-0.8906511068344116
aF0.10802396386861801
aF0.1080223098397255
aF0.36942535638809204
aF-0.14079692959785461
aF-0.9185319542884827
aF0.09496966749429703
aF0.09497029334306717
aF0.5763843655586243
aF-0.3689875304698944
aF-0.7291291356086731
aF0.10382506251335144
aF0.10382390767335892
aF0.5513019561767578
aF-0.4632420539855957
aF-0.693882405757904
aF0.1060207411646843
aF0.10602130740880966
aI2
aa(lp41
F-0.11109783500432968
aF0.3916532099246979
aF-0.9133810997009277
aF0.19009755551815033
aF0.19009722769260406
aF0.29696711897850037
aF-0.3863477110862732
aF-0.8732388019561768
aF0.09389378130435944
aF0.09389378130435944
aF0.24984940886497498
aF-0.34586548805236816
aF-0.9044071435928345
aF0.09038456529378891
aF0.09038456529378891
aF0.16865567862987518
aF-0.6534980535507202
aF-0.7378994822502136
aF0.10612939298152924
aF0.1061282679438591
aF0.19482195377349854
aF-0.7944192290306091
aF-0.5752759575843811
aF0.10830499976873398
aF0.10830720514059067
aI2
aa(lp42
F-0.8695144653320312
aF-0.10891193896532059
aF-0.4817497730255127
aF0.24722518026828766
aF0.24722518026828766
aF-0.3717834949493408
aF0.09691371768712997
aF-0.9232468008995056
aF0.041627369821071625
aF0.041625939309597015
aF-0.4263928532600403
aF0.021731512621045113
aF-0.904276967048645
aF0.03236455097794533
aF0.03236086666584015
aF-0.14710460603237152
aF0.09935615211725235
aF-0.9841181635856628
aF0.10209979116916656
aF0.10210154950618744
aF-0.24332255125045776
aF0.12817268073558807
aF-0.9614395499229431
aF0.06979483366012573
aF0.06979397684335709
aI2
aa(lp43
F-0.8273302316665649
aF-0.5581433773040771
aF-0.06325026601552963
aF0.2311960607767105
aF0.2311960607767105
aF-0.8222917318344116
aF0.0003369737241882831
aF-0.569066047668457
aF0.0263272263109684
aF0.0263272263109684
aF-0.82554030418396
aF-0.10530385375022888
aF-0.5544314980506897
aF0.029615651816129684
aF0.029615651816129684
aF-0.7086796164512634
aF0.11515011638402939
aF-0.69607013463974
aF0.09242455661296844
aF0.09242520481348038
aF-0.7900944948196411
aF0.03267864137887955
aF-0.612113356590271
aF0.059797946363687515
aF0.059797946363687515
aI2
aa(lp44
F-0.9464058876037598
aF-0.24152879416942596
aF0.21442900598049164
aF0.2587663233280182
aF0.25876492261886597
aF-0.9105042219161987
aF0.20130480825901031
aF-0.3611900806427002
aF0.05018552020192146
aF0.05018670856952667
aF-0.9201724529266357
aF0.11177867650985718
aF-0.3752174973487854
aF0.08047632873058319
aF0.08047781139612198
aF-0.7485330700874329
aF0.1828164905309677
aF-0.6373981833457947
aF0.024424433708190918
aF0.02442687377333641
aF-0.7952069044113159
aF0.16617517173290253
aF-0.5831224322319031
aF0.02704428881406784
aF0.02703767642378807
aI2
aa(lp45
F-0.8956290483474731
aF-0.27583324909210205
aF-0.3489478528499603
aF0.13617587089538574
aF0.13617411255836487
aF-0.11816627532243729
aF-0.908745527267456
aF-0.40027275681495667
aF0.033033646643161774
aF0.033033646643161774
aF-0.20595358312129974
aF-0.925743579864502
aF-0.3171466290950775
aF0.024348657578229904
aF0.024351105093955994
aF0.12608978152275085
aF-0.9285736083984375
aF-0.3490734100341797
aF0.05852372199296951
aF0.05852677673101425
aF0.01194289606064558
aF-0.9331917762756348
aF-0.35918015241622925
aF0.032370079308748245
aF0.03236823529005051
aI2
aa(lp46
F-0.8101784586906433
aF-0.39925193786621094
aF-0.4291953444480896
aF0.06264171004295349
aF0.06264456361532211
aF-0.09209230542182922
aF-0.9800424575805664
aF-0.17617012560367584
aF0.10192420333623886
aF0.1019236147403717
aF-0.17614109814167023
aF-0.9734543561935425
aF-0.14615383744239807
aF0.10805105417966843
aF0.10805105417966843
aF0.0904521495103836
aF-0.9947645664215088
aF0.04755936935544014
aF0.18554577231407166
aF0.18554513156414032
aF0.005745233967900276
aF-0.9995291829109192
aF0.03013812005519867
aF0.17731884121894836
aF0.17731916904449463
aI2
aa(lp47
F-0.7910116314888
aF0.5989949703216553
aF-0.1245216652750969
aF0.21724721789360046
aF0.21724583208560944
aF-0.11557608097791672
aF0.9795349836349487
aF-0.1647828221321106
aF0.04501713439822197
aF0.045019783079624176
aF-0.24497883021831512
aF0.9586883783340454
aF-0.14457477629184723
aF0.04430286958813667
aF0.04430152475833893
aF0.054224126040935516
aF0.9360539317131042
aF-0.3476531207561493
aF0.1057562455534935
aF0.10575737804174423
aF-0.0679209753870964
aF0.9571494460105896
aF-0.2815167009830475
aF0.08822929114103317
aF0.08822996914386749
aI2
aa(lp48
F-0.5474490523338318
aF0.7964267730712891
aF-0.25691235065460205
aF0.0691189244389534
aF0.06911719590425491
aF0.2525365650653839
aF0.8954026699066162
aF-0.3667142689228058
aF0.05812595784664154
aF0.05812595784664154
aF0.1460374891757965
aF0.9187306761741638
aF-0.3668881356716156
aF0.05476405471563339
aF0.05476514250040054
aF0.4654656648635864
aF0.7420302629470825
aF-0.4824238419532776
aF0.07281503826379776
aF0.07281503826379776
aF0.4036843776702881
aF0.801872968673706
aF-0.4404982030391693
aF0.04525754973292351
aF0.04525754973292351
aI2
aa(lp49
F-0.7059094309806824
aF0.18843993544578552
aF-0.6827753186225891
aF0.21242034435272217
aF0.2124197781085968
aF-0.023111825808882713
aF0.07074197381734848
aF-0.9972268342971802
aF0.07299669831991196
aF0.07299751043319702
aF-0.08921580761671066
aF0.04997274652123451
aF-0.994757890701294
aF0.05262276530265808
aF0.052625034004449844
aF0.27897047996520996
aF-0.09602385014295578
aF-0.9554867148399353
aF0.07047443091869354
aF0.07047612220048904
aF0.2214733064174652
aF-0.006163596175611019
aF-0.9751469492912292
aF0.04926091805100441
aF0.04926212877035141
aI2
aa(lp50
F-0.7912827730178833
aF0.1443493515253067
aF-0.5941672921180725
aF0.2666712701320648
aF0.266670823097229
aF-0.18328458070755005
aF0.04447231441736221
aF-0.9820534586906433
aF0.05052892118692398
aF0.05052892118692398
aF-0.26677045226097107
aF0.001475327997468412
aF-0.9637590050697327
aF0.042329005897045135
aF0.042329005897045135
aF0.10531249642372131
aF-0.1004326194524765
aF-0.98935467004776
aF0.04773886501789093
aF0.04773886501789093
aF0.008606325834989548
aF-0.058800701051950455
aF-0.9982326030731201
aF0.032259389758110046
aF0.032255690544843674
aI2
aa(lp51
F-0.42526447772979736
aF0.6473802328109741
aF-0.6324941515922546
aF0.07421891391277313
aF0.07421891391277313
aF0.035522766411304474
aF0.009431690908968449
aF-0.9993243217468262
aF0.06090280041098595
aF0.06090378016233444
aF-0.06138269230723381
aF0.06641135364770889
aF-0.9959024786949158
aF0.08002724498510361
aF0.08002649992704391
aF-0.01654011756181717
aF-0.3393062353134155
aF-0.94053053855896
aF0.045320745557546616
aF0.045320745557546616
aF-0.026867946609854698
aF-0.29325181245803833
aF-0.9556576609611511
aF0.032038722187280655
aF0.03204244375228882
aI2
aa(lp52
F-0.6987110376358032
aF-0.45731136202812195
aF-0.5501537919044495
aF0.28993943333625793
aF0.28993943333625793
aF-0.29752373695373535
aF-0.043061524629592896
aF-0.9537427425384521
aF0.031038807705044746
aF0.031034966930747032
aF-0.3187847137451172
aF-0.10845287889242172
aF-0.9416019320487976
aF0.02659755013883114
aF0.026595307514071465
aF-0.08898098021745682
aF0.15019331872463226
aF-0.9846442937850952
aF0.08443703502416611
aF0.08443774282932281
aF-0.230255126953125
aF0.06508803367614746
aF-0.9709511995315552
aF0.0616261251270771
aF0.0616270937025547
aI2
aa(lp53
F-0.8310440182685852
aF-0.1305733025074005
aF-0.5406628847122192
aF0.29484686255455017
aF0.29484644532203674
aF-0.2512947916984558
aF-0.23931749165058136
aF-0.9378582239151001
aF0.02885301038622856
aF0.028848879039287567
aF-0.3167688250541687
aF-0.3054908514022827
aF-0.897960364818573
aF0.010495255701243877
aF0.010483890771865845
aF0.042785461992025375
aF-0.3166365921497345
aF-0.9475814700126648
aF0.03940233960747719
aF0.03940233960747719
aF-0.07247565686702728
aF-0.3196811378002167
aF-0.9447492957115173
aF0.025224070996046066
aF0.025221707299351692
aI2
aa(lp54
F-0.7154682278633118
aF0.19590260088443756
aF-0.6706171631813049
aF0.15652184188365936
aF0.15652108192443848
aF-0.03882983326911926
aF-0.1329459547996521
aF-0.9903624057769775
aF0.07121039927005768
aF0.07120956480503082
aF-0.1432352215051651
aF-0.1546010673046112
aF-0.9775387644767761
aF0.08548431098461151
aF0.08548221737146378
aF0.15646645426750183
aF-0.41012999415397644
aF-0.8985052704811096
aF0.04482201486825943
aF0.04482201486825943
aF0.09542546421289444
aF-0.3595471978187561
aF-0.9282347559928894
aF0.025403043255209923
aF0.025405390188097954
aI2
aa(lp55
F-0.46637892723083496
aF0.6404872536659241
aF-0.6101365685462952
aF0.037231795489788055
aF0.03722859174013138
aF0.42640796303749084
aF0.4331960380077362
aF-0.7940511703491211
aF0.3301689624786377
aF0.3301689624786377
aF0.4034689664840698
aF0.4402913749217987
aF-0.8020949363708496
aF0.2906751036643982
aF0.29067593812942505
aF0.6154157519340515
aF0.0778442844748497
aF-0.784349262714386
aF0.18158885836601257
aF0.18158918619155884
aF0.6627030372619629
aF0.12439506500959396
aF-0.7384785413742065
aF0.06883960217237473
aF0.06884046643972397
aI2
aa(lp56
F-0.7205562591552734
aF0.3900948166847229
aF-0.5732579827308655
aF0.16893784701824188
aF0.16893891990184784
aF-0.06653372943401337
aF0.2260931134223938
aF-0.9718307852745056
aF0.041378844529390335
aF0.04137740656733513
aF-0.12816046178340912
aF0.17338208854198456
aF-0.9764801263809204
aF0.0023920803796499968
aF0.0023920803796499968
aF0.22827599942684174
aF0.15546061098575592
aF-0.9611046314239502
aF0.10613445937633514
aF0.10613445937633514
aF0.15527068078517914
aF0.19598932564258575
aF-0.9682350158691406
aF0.07228796184062958
aF0.07228878885507584
aI2
aa(lp57
F-0.8164214491844177
aF0.22353699803352356
aF-0.5324351787567139
aF0.1957891881465912
aF0.1957891881465912
aF-0.16355186700820923
aF0.008417196571826935
aF-0.9864987730979919
aF0.018999384716153145
aF0.019005658105015755
aF-0.23516911268234253
aF-0.0457451269030571
aF-0.9708772897720337
aF0.0015440810238942504
aF0.0015440810238942504
aF0.08037442713975906
aF-0.01931661181151867
aF-0.9965775609016418
aF0.0429234653711319
aF0.0429234653711319
aF-0.01767190918326378
aF0.04710979759693146
aF-0.9987333416938782
aF0.03418832644820213
aF0.03418658301234245
aI2
aa(lp58
F-0.7401602864265442
aF0.26353251934051514
aF-0.6186383366584778
aF0.14030791819095612
aF0.14030705392360687
aF-0.06470201909542084
aF0.021098023280501366
aF-0.9976815581321716
aF0.04346182197332382
aF0.043459080159664154
aF-0.1451328843832016
aF-0.022683000192046165
aF-0.9891520738601685
aF0.04362886771559715
aF0.04362886771559715
aF0.1512317806482315
aF-0.11187572032213211
aF-0.9821469783782959
aF0.06988110393285751
aF0.06987939774990082
aF0.059311628341674805
aF-0.06114865839481354
aF-0.9963648915290833
aF0.040556587278842926
aF0.04055805876851082
aI2
aa(lp59
F-0.48592251539230347
aF0.051017891615629196
aF-0.8725115656852722
aF0.018548527732491493
aF0.018548527732491493
aF0.16712860763072968
aF-0.5579723715782166
aF-0.8128560185432434
aF0.10128308087587357
aF0.10128308087587357
aF0.1142033264040947
aF-0.5208116173744202
aF-0.8459981083869934
aF0.08387969434261322
aF0.08387898653745651
aF0.2816550135612488
aF-0.7168492078781128
aF-0.6378069519996643
aF0.11014820635318756
aF0.11014875024557114
aF0.2410132884979248
aF-0.6698656678199768
aF-0.7022766470909119
aF0.07397899031639099
aF0.07397737354040146
aI2
aa(lp60
F-0.5052608847618103
aF0.6147298216819763
aF-0.6056555509567261
aF0.11322326958179474
aF0.11322379857301712
aF0.10601826012134552
aF0.34111282229423523
aF-0.9340246915817261
aF0.11546545475721359
aF0.11546597629785538
aF0.08464395254850388
aF0.3389519453048706
aF-0.9369882941246033
aF0.09028545767068863
aF0.09028612077236176
aF0.404226154088974
aF0.16780830919742584
aF-0.8991338014602661
aF0.11413702368736267
aF0.1141359806060791
aF0.38821712136268616
aF0.23251958191394806
aF-0.891752302646637
aF0.061517633497714996
aF0.061516664922237396
aI2
aa(lp61
F-0.6634123921394348
aF-0.04233656823635101
aF-0.7470553517341614
aF0.7233037352561951
aF0.7233038544654846
aF-0.17538177967071533
aF0.3340451419353485
aF-0.9260966777801514
aF1.4474550485610962
aF1.447454571723938
aF-0.19815030694007874
aF0.12798306345939636
aF-0.9717801809310913
aF1.5511095523834229
aF1.5511094331741333
aF-0.13268864154815674
aF0.07572991400957108
aF-0.9882603883743286
aF1.5544792413711548
aF1.5544791221618652
aF-0.4775005877017975
aF-0.7126701474189758
aF-0.5139012336730957
aF0.6612730026245117
aF0.6612727046012878
aI3
aa(lp62
F-0.7256016731262207
aF-0.17331469058990479
aF-0.6659311056137085
aF0.7386837601661682
aF0.7386836409568787
aF-0.24865595996379852
aF0.2578575015068054
aF-0.9336378574371338
aF1.4473872184753418
aF1.4473875761032104
aF-0.24743928015232086
aF-0.05414784327149391
aF-0.9673892259597778
aF1.534633994102478
aF1.534633755683899
aF-0.2057211697101593
aF-0.077824667096138
aF-0.9755111932754517
aF1.5274593830108643
aF1.5274596214294434
aF-0.42467495799064636
aF-0.801933228969574
aF-0.42018353939056396
aF0.55323326587677
aF0.5532324910163879
aI3
aa(lp63
F-0.7747787237167358
aF-0.22821104526519775
aF-0.5896080136299133
aF0.732529878616333
aF0.7325299978256226
aF-0.2733483910560608
aF0.20932763814926147
aF-0.9388623833656311
aF1.4473671913146973
aF1.4473669528961182
aF-0.24776944518089294
aF-0.8785673975944519
aF-0.4083256125450134
aF0.8824770450592041
aF0.8824770450592041
aF-0.28121352195739746
aF-0.8920541405677795
aF-0.35377728939056396
aF0.9127415418624878
aF0.9127418994903564
aF-0.45337527990341187
aF-0.8432225584983826
aF-0.28883668780326843
aF0.9278703331947327
aF0.9278707504272461
aI3
aa(lp64
F-0.6341140270233154
aF-0.02287343330681324
aF-0.7729011178016663
aF0.7584607601165771
aF0.7584605813026428
aF0.10568767040967941
aF0.09092124551534653
aF-0.9902340173721313
aF1.4473626613616943
aF1.4473627805709839
aF-0.4821518659591675
aF-0.7883297801017761
aF-0.38218551874160767
aF0.8219588398933411
aF0.8219582438468933
aF-0.5159565210342407
aF-0.7733288407325745
aF-0.3684445321559906
aF0.8359498977661133
aF0.8359501361846924
aF-0.6665047407150269
aF-0.65317702293396
aF-0.3593483567237854
aF0.8440524935722351
aF0.8440529108047485
aI3
aa(lp65
F-0.6367856860160828
aF0.026064572855830193
aF-0.7706001996994019
aF0.7218076586723328
aF0.7218076586723328
aF-0.14108385145664215
aF-0.07428105920553207
aF-0.9872069954872131
aF1.0185269117355347
aF1.0185270309448242
aF-0.029086370021104813
aF0.04755046218633652
aF-0.9984452724456787
aF1.5275152921676636
aF1.5275146961212158
aF0.02050078473985195
aF-0.018660342320799828
aF-0.9996156692504883
aF1.4974676370620728
aF1.4974673986434937
aF-0.04404937103390694
aF-0.07251352071762085
aF-0.9963942170143127
aF1.5084885358810425
aF1.508488655090332
aI3
aa(lp66
F-0.5636227130889893
aF-0.046594370156526566
aF-0.8247172236442566
aF0.6961160898208618
aF0.6961156129837036
aF-0.21838271617889404
aF-0.4320034682750702
aF-0.8750326037406921
aF1.0187170505523682
aF1.018716812133789
aF-0.016846636310219765
aF-0.37106969952583313
aF-0.92845219373703
aF1.5080945491790771
aF1.5080947875976562
aF0.07377202063798904
aF-0.40176013112068176
aF-0.912768542766571
aF1.5157229900360107
aF1.515723466873169
aF-0.003089671954512596
aF-0.33958861231803894
aF-0.9405691027641296
aF1.499327301979065
aF1.4993277788162231
aI3
aa(lp67
F-0.7433186173439026
aF-0.565483808517456
aF-0.3573590815067291
aF0.6144505739212036
aF0.6144507527351379
aF-0.31638237833976746
aF-0.9346939325332642
aF0.162016361951828
aF1.3376706838607788
aF1.337670087814331
aF-0.3638019263744354
aF-0.9158886075019836
aF0.1696949303150177
aF1.3361551761627197
aF1.336154818534851
aF-0.4288908839225769
aF-0.8343023061752319
aF0.34639909863471985
aF1.4345053434371948
aF1.4345053434371948
aF-0.567237138748169
aF-0.7729913592338562
aF0.2841242849826813
aF1.4470160007476807
aF1.4470151662826538
aI3
aa(lp68
F-0.12211129814386368
aF-0.8765138983726501
aF-0.46563100814819336
aF0.49334636330604553
aF0.4933459758758545
aF0.5287643074989319
aF-0.847517192363739
aF0.04607515037059784
aF1.17621910572052
aF1.1762199401855469
aF0.45659127831459045
aF-0.8848661780357361
aF0.09239251166582108
aF1.1761771440505981
aF1.1761771440505981
aF0.4341316819190979
aF-0.8841082453727722
aF0.17286501824855804
aF1.1658780574798584
aF1.1658774614334106
aF0.3129061460494995
aF-0.9335284233093262
aF0.1749698966741562
aF1.1541208028793335
aF1.1541213989257812
aI3
aa(lp69
F-0.014911338686943054
aF-0.8545419573783875
aF-0.5191681385040283
aF0.6321355700492859
aF0.6321355700492859
aF0.5781899690628052
aF-0.7298692464828491
aF-0.3646741807460785
aF0.9319431185722351
aF0.9319433569908142
aF0.5230103731155396
aF-0.7949665784835815
aF-0.3073895275592804
aF0.9412365555763245
aF0.9412367939949036
aF0.582328200340271
aF-0.7531886696815491
aF-0.305942177772522
aF0.9391350746154785
aF0.9391341805458069
aF0.6793050765991211
aF-0.7055482864379883
aF-0.20185670256614685
aF1.0273475646972656
aF1.027347207069397
aI3
aa(lp70
F-0.3196518123149872
aF-0.4477356970310211
aF-0.8350780606269836
aF0.7657549977302551
aF0.7657540440559387
aF0.9607383608818054
aF-0.09196019917726517
aF-0.26177310943603516
aF1.2694981098175049
aF1.269498348236084
aF0.9148240685462952
aF-0.2251526564359665
aF-0.3352658748626709
aF1.2319624423980713
aF1.2319625616073608
aF0.6392399072647095
aF-0.14511744678020477
aF-0.755190908908844
aF0.9789726138114929
aF0.978972852230072
aF0.7271728515625
aF-0.0467805378139019
aF-0.6848586201667786
aF0.9742942452430725
aF0.9742947220802307
aI3
aa(lp71
F-0.5128254294395447
aF-0.11527180671691895
aF-0.8507187962532043
aF0.7368659377098083
aF0.7368671298027039
aF0.6721494793891907
aF-0.3584056794643402
aF-0.6478891968727112
aF1.4337220191955566
aF1.4337221384048462
aF0.5945460796356201
aF-0.47217297554016113
aF-0.6508207321166992
aF1.4741904735565186
aF1.4741907119750977
aF0.40303775668144226
aF-0.4051057994365692
aF-0.8206399083137512
aF1.2736310958862305
aF1.2736315727233887
aF0.29740041494369507
aF-0.4247923493385315
aF-0.8550465703010559
aF1.2198878526687622
aF1.2198880910873413
aI3
aa(lp72
F-0.815078616142273
aF0.5285300612449646
aF-0.23728236556053162
aF0.693648099899292
aF0.6936481595039368
aF-0.07539959251880646
aF-0.48344793915748596
aF-0.8721197843551636
aF1.405068278312683
aF1.405068278312683
aF-0.20005442202091217
aF-0.5052933692932129
aF-0.8394384980201721
aF1.4059696197509766
aF1.4059702157974243
aF-0.23876535892486572
aF-0.5006498694419861
aF-0.8320701718330383
aF1.4171603918075562
aF1.417159914970398
aF-0.4114922285079956
aF-0.5148468017578125
aF-0.7520684599876404
aF1.4189797639846802
aF1.418980360031128
aI3
aa(lp73
F-0.6525278687477112
aF0.5158941745758057
aF-0.5550320744514465
aF0.5913705825805664
aF0.5913703441619873
aF-0.2996956408023834
aF-0.45668548345565796
aF-0.837628185749054
aF1.418656826019287
aF1.4186567068099976
aF-0.40948185324668884
aF-0.43751099705696106
aF-0.8005678057670593
aF1.4185527563095093
aF1.4185528755187988
aF-0.43975532054901123
aF-0.451057493686676
aF-0.7766353487968445
aF1.4064624309539795
aF1.4064627885818481
aF-0.6123037934303284
aF-0.4045383036136627
aF-0.6792885065078735
aF1.4128695726394653
aF1.4128693342208862
aI3
aa(lp74
F-0.1648160219192505
aF0.572007954120636
aF-0.8035188913345337
aF0.3894159197807312
aF0.3894163966178894
aF-0.4692785143852234
aF-0.18510855734348297
aF-0.8634306192398071
aF1.3336867094039917
aF1.3336864709854126
aF-0.5626530051231384
aF-0.10335888713598251
aF-0.8202064037322998
aF1.345225214958191
aF1.3452253341674805
aF-0.7096293568611145
aF-0.15885119140148163
aF-0.6864346265792847
aF0.4889032244682312
aF0.4889032244682312
aF-0.7911155223846436
aF0.007629024796187878
aF-0.6116192936897278
aF0.488459974527359
aF0.488459974527359
aI3
aa(lp75
F0.40708765387535095
aF0.8188684582710266
aF-0.404640793800354
aF0.7626081705093384
aF0.7626080513000488
aF-0.15172435343265533
aF0.6409843564033508
aF-0.7524086236953735
aF1.2486270666122437
aF1.248626947402954
aF-0.21976567804813385
aF0.708786129951477
aF-0.6703172922134399
aF1.2184518575668335
aF1.2184523344039917
aF-0.49813804030418396
aF0.552836000919342
aF-0.6680050492286682
aF0.9337058663368225
aF0.933705747127533
aF-0.5614408850669861
aF0.6543967127799988
aF-0.5065068602561951
aF0.9723005294799805
aF0.97230064868927
aI3
aa(lp76
F0.7601892352104187
aF0.39332476258277893
aF0.5171151161193848
aF0.5161423087120056
aF0.5161427855491638
aF0.16571290791034698
aF0.7787525057792664
aF0.6050485372543335
aF1.2494745254516602
aF1.2494757175445557
aF0.21589075028896332
aF0.6950794458389282
aF0.6857520341873169
aF1.2187339067459106
aF1.2187327146530151
aF-0.061269961297512054
aF0.5516992807388306
aF0.8317895531654358
aF0.9871938824653625
aF0.9871934056282043
aF0.07923268526792526
aF0.43718278408050537
aF0.8958757519721985
aF1.0044790506362915
aF1.0044794082641602
aI3
aa(lp77
F-0.35989660024642944
aF0.3834562599658966
aF-0.8505502939224243
aF0.7352364659309387
aF0.735236406326294
aF-0.2612727880477905
aF-0.44885507225990295
aF-0.8545558452606201
aF1.4680812358856201
aF1.4680812358856201
aF-0.30826643109321594
aF-0.40559691190719604
aF-0.8605016469955444
aF1.5001819133758545
aF1.5001814365386963
aF-0.3239467144012451
aF-0.39363154768943787
aF-0.8602980971336365
aF1.5028705596923828
aF1.5028700828552246
aF-0.41541504859924316
aF-0.28691187500953674
aF-0.8631986975669861
aF1.5008134841918945
aF1.5008131265640259
aI3
aa(lp78
F-0.45844757556915283
aF0.15422683954238892
aF-0.8752371072769165
aF0.701633870601654
aF0.7016336917877197
aF-0.6002842783927917
aF-0.5977221131324768
aF-0.5314009785652161
aF1.3661125898361206
aF1.3661118745803833
aF-0.6457366943359375
aF-0.5439273715019226
aF-0.535879909992218
aF1.4075562953948975
aF1.4075566530227661
aF-0.653749942779541
aF-0.5306974649429321
aF-0.5394174456596375
aF1.3997212648391724
aF1.3997212648391724
aF-0.7048932313919067
aF-0.40423351526260376
aF-0.5828558802604675
aF1.4008870124816895
aF1.4008867740631104
aI3
aa(lp79
F-0.3194941282272339
aF0.20166099071502686
aF-0.9258814454078674
aF0.5847753286361694
aF0.5847750902175903
aF-0.8805751800537109
aF-0.43542492389678955
aF-0.18706266582012177
aF0.9777294397354126
aF0.9777293801307678
aF-0.9214125275611877
aF-0.31078827381134033
aF-0.23325872421264648
aF0.9624522924423218
aF0.9624520540237427
aF-0.907742440700531
aF-0.3022315800189972
aF-0.29096347093582153
aF0.9110838770866394
aF0.9110828638076782
aF-0.9228918552398682
aF-0.13356532156467438
aF-0.3611522912979126
aF0.9027894735336304
aF0.9027892351150513
aI3
aa(lp80
F-0.5968786478042603
aF0.0761774331331253
aF-0.7987070679664612
aF0.7408571839332581
aF0.7408568859100342
aF-0.5140752196311951
aF-0.768037736415863
aF-0.381896048784256
aF0.9191262722015381
aF0.9191264510154724
aF-0.6361485719680786
aF-0.682620644569397
aF-0.35964423418045044
aF0.9578405022621155
aF0.957841157913208
aF-0.6523835062980652
aF-0.6575159430503845
aF-0.3769197463989258
aF0.956308126449585
aF0.9563080668449402
aF-0.7500923871994019
aF-0.5118492841720581
aF-0.4187741279602051
aF0.9537230730056763
aF0.9537227153778076
aI3
aa(lp81
F-0.5461814999580383
aF-0.6063562035560608
aF-0.5779428482055664
aF0.725153386592865
aF0.7251535654067993
aF0.17220786213874817
aF-0.9514120817184448
aF-0.2552638053894043
aF0.9115476012229919
aF0.9115474224090576
aF0.04131338745355606
aF-0.9967098236083984
aF-0.06973318010568619
aF1.091132640838623
aF1.0911321640014648
aF0.0019888966344296932
aF-0.9988164305686951
aF-0.04859805107116699
aF1.109218716621399
aF1.1092193126678467
aF-0.18299195170402527
aF-0.9797557592391968
aF-0.08119407296180725
aF1.127172589302063
aF1.1271731853485107
aI3
aa(lp82
F-0.03462913632392883
aF-0.9210522770881653
aF-0.38789641857147217
aF0.6719932556152344
aF0.6719925403594971
aF0.6715989708900452
aF-0.7221260666847229
aF0.16579729318618774
aF1.2849819660186768
aF1.2849819660186768
aF0.582397997379303
aF-0.7783440351486206
aF0.23450620472431183
aF1.2821028232574463
aF1.2821025848388672
aF0.5421087145805359
aF-0.7955779433250427
aF0.27050670981407166
aF1.2776885032653809
aF1.2776882648468018
aF0.372032105922699
aF-0.8979952335357666
aF0.23493963479995728
aF1.2787076234817505
aF1.278707504272461
aI3
aa(lp83
F-0.5835956931114197
aF0.23319929838180542
aF-0.7778394222259521
aF0.746626615524292
aF0.746626615524292
aF-0.0817631259560585
aF-0.5695083737373352
aF-0.8179089426994324
aF1.344682216644287
aF1.3446820974349976
aF-0.18960006535053253
aF-0.5375107526779175
aF-0.8216654062271118
aF1.4085181951522827
aF1.4085181951522827
aF-0.21951162815093994
aF-0.5378699898719788
aF-0.8139474391937256
aF1.4294742345809937
aF1.4294744729995728
aF-0.3987990617752075
aF-0.4510364234447479
aF-0.7984520196914673
aF1.453970193862915
aF1.4539709091186523
aI3
aa(lp84
F-0.5080136060714722
aF-0.3522944450378418
aF-0.7860094308853149
aF0.7270112037658691
aF0.7270106077194214
aF0.43301665782928467
aF-0.3839283883571625
aF-0.8155339360237122
aF1.3789869546890259
aF1.3789868354797363
aF0.3497285842895508
aF-0.47226813435554504
aF-0.809106171131134
aF1.3908156156539917
aF1.3908156156539917
aF0.3266547620296478
aF-0.4892561137676239
aF-0.8086563348770142
aF1.3977359533309937
aF1.3977360725402832
aF0.16562870144844055
aF-0.600691556930542
aF-0.7821360230445862
aF1.3915492296218872
aF1.391548752784729
aI3
aa(lp85
F-0.7531689405441284
aF-0.31352248787879944
aF-0.5783080458641052
aF0.5101516246795654
aF0.5101519823074341
aF-0.40444523096084595
aF-0.8322150707244873
aF-0.37926527857780457
aF1.124035120010376
aF1.1240350008010864
aF-0.39240404963493347
aF-0.8410212397575378
aF-0.37242770195007324
aF1.1556015014648438
aF1.1556010246276855
aF-0.3774436116218567
aF-0.8423124551773071
aF-0.38476744294166565
aF1.178346037864685
aF1.1783463954925537
aF-0.44599294662475586
aF-0.8095181584358215
aF-0.38179919123649597
aF1.1708438396453857
aF1.1708440780639648
aI3
aa(lp86
F-0.7759575247764587
aF-0.37510988116264343
aF-0.5071316361427307
aF0.3026489317417145
aF0.3026489317417145
aF-0.5451574325561523
aF-0.8378496766090393
aF0.028481822460889816
aF0.8419347405433655
aF0.8419337868690491
aF-0.5427908897399902
aF-0.839864194393158
aF0.0024958227295428514
aF0.8426962494850159
aF0.8426971435546875
aF-0.5406991243362427
aF-0.840435266494751
aF0.03623462840914726
aF0.7575135827064514
aF0.757513165473938
aF-0.5996218323707581
aF-0.797553539276123
aF0.06604619324207306
aF0.7476541996002197
aF0.7476545572280884
aI3
aa(lp87
F-0.6113721132278442
aF0.7150548100471497
aF-0.3389996886253357
aF0.5381528735160828
aF0.5381523370742798
aF-0.8664487600326538
aF0.2682192325592041
aF0.4210996925830841
aF0.7633586525917053
aF0.7633583545684814
aF-0.8281266093254089
aF0.35236915946006775
aF0.43593838810920715
aF0.7683875560760498
aF0.7683878540992737
aF-0.7797946333885193
aF0.3752930760383606
aF0.5010742545127869
aF0.7757930755615234
aF0.775793194770813
aF-0.7246206402778625
aF0.5071031451225281
aF0.4666597843170166
aF0.7759236693382263
aF0.7759239077568054
aI3
aa(lp88
F-0.6121324300765991
aF0.4284490644931793
aF-0.6646241545677185
aF0.6460569500923157
aF0.6460569500923157
aF-0.15523256361484528
aF-0.32020488381385803
aF-0.9345435500144958
aF0.787140429019928
aF0.7871407866477966
aF-0.26876217126846313
aF-0.3023099899291992
aF-0.9145357012748718
aF0.8104615211486816
aF0.8104619979858398
aF-0.31063663959503174
aF-0.3470022678375244
aF-0.8849261403083801
aF0.8354979157447815
aF0.8354974389076233
aF-0.4761674702167511
aF-0.2937740981578827
aF-0.8288312554359436
aF0.8359096050262451
aF0.835909903049469
aI3
aa(lp89
F-0.35345134139060974
aF0.5113814473152161
aF-0.7833014726638794
aF0.14571572840213776
aF0.14571654796600342
aF-0.4426664710044861
aF-0.31015220284461975
aF-0.8413394689559937
aF1.4828351736068726
aF1.4828354120254517
aF-0.8083158731460571
aF-0.5097220540046692
aF-0.2946334481239319
aF0.9978813529014587
aF0.9978808760643005
aF-0.8310713171958923
aF-0.5287992358207703
aF-0.17231357097625732
aF1.262717366218567
aF1.2627171277999878
aF-0.8590930104255676
aF-0.39865371584892273
aF-0.3209896981716156
aF1.1882011890411377
aF1.1882011890411377
aI1
aI4
aag89
a(lp90
F-0.8589457273483276
aF0.2467765212059021
aF-0.44867974519729614
aF0.19980119168758392
aF0.19980059564113617
aF-0.4863673746585846
aF0.39734625816345215
aF-0.7781791090965271
aF0.1333189755678177
aF0.13332167267799377
aF-0.23713405430316925
aF-0.11083757877349854
aF-0.9651334285736084
aF1.3043369054794312
aF1.3043367862701416
aF-0.21303226053714752
aF-0.09666699916124344
aF-0.9722514152526855
aF1.2992820739746094
aF1.2992820739746094
aF-0.010200892575085163
aF0.14544810354709625
aF-0.9893131852149963
aF0.0983874499797821
aF0.0983898788690567
aI4
aa(lp91
F-0.8943401575088501
aF0.17240041494369507
aF-0.4128361940383911
aF0.19611459970474243
aF0.19611398875713348
aF-0.6354949474334717
aF0.32299456000328064
aF-0.701299250125885
aF0.13659365475177765
aF0.13659322261810303
aF-0.3120827376842499
aF-0.19089511036872864
aF-0.9306790232658386
aF1.3179335594177246
aF1.3179336786270142
aF-0.22546932101249695
aF-0.18302315473556519
aF-0.9569044709205627
aF1.3174554109573364
aF1.317455530166626
aF-0.178410142660141
aF0.22429099678993225
aF-0.9580518007278442
aF0.21166330575942993
aF0.21166415512561798
aI4
aa(lp92
F-0.7996994853019714
aF0.25310930609703064
aF-0.5444413423538208
aF0.19826526939868927
aF0.19826586544513702
aF-0.46958789229393005
aF0.2241584062576294
aF-0.8539555668830872
aF0.21297207474708557
aF0.21297235786914825
aF-0.19694331288337708
aF-0.4648281931877136
aF-0.863219678401947
aF1.4975287914276123
aF1.4975286722183228
aF-0.0929519385099411
aF-0.4502270817756653
aF-0.8880627751350403
aF1.4982616901397705
aF1.4982620477676392
aF-0.01936917006969452
aF-0.41015875339508057
aF-0.911808431148529
aF0.02615685574710369
aF0.02615913562476635
aI4
aa(lp93
F-0.7911443710327148
aF-0.3336810767650604
aF-0.5125888586044312
aF0.19850599765777588
aF0.19850599765777588
aF-0.3924243450164795
aF-0.6119447350502014
aF-0.6866781115531921
aF0.15766100585460663
aF0.15766137838363647
aF-0.15932156145572662
aF-0.9112776517868042
aF-0.3797230124473572
aF1.4900610446929932
aF1.4900604486465454
aF-0.05234270915389061
aF-0.9234268665313721
aF-0.3801881968975067
aF1.492039442062378
aF1.4920395612716675
aF0.09533265978097916
aF-0.9544548988342285
aF-0.2827145457267761
aF0.013606428168714046
aF0.013606428168714046
aI4
aa(lp94
F-0.7708627581596375
aF-0.3463621735572815
aF-0.5346061587333679
aF0.19853410124778748
aF0.19853471219539642
aF-0.4106959402561188
aF-0.7381462454795837
aF-0.5352278351783752
aF0.14705686271190643
aF0.1470564603805542
aF-0.3633424937725067
aF-0.920632541179657
aF0.1428917497396469
aF1.4492281675338745
aF1.4492279291152954
aF-0.22703751921653748
aF-0.9681163430213928
aF0.1058519035577774
aF1.4430444240570068
aF1.4430440664291382
aF0.005191098432987928
aF-0.9949519038200378
aF0.1002185121178627
aF0.06157771497964859
aF0.06157868355512619
aI4
aa(lp95
F-0.5780497193336487
aF-0.2467832863330841
aF-0.7777894139289856
aF0.19854800403118134
aF0.19854800403118134
aF-0.3092396855354309
aF-0.6639905571937561
aF-0.6807990670204163
aF0.16760073602199554
aF0.16760002076625824
aF-0.6018942594528198
aF-0.7844439744949341
aF0.14956903457641602
aF1.413771629333496
aF1.4137718677520752
aF-0.49281439185142517
aF-0.8609485626220703
aF0.12610144913196564
aF1.4123858213424683
aF1.412386178970337
aF-0.2529529631137848
aF-0.9600322246551514
aF0.11980391293764114
aF0.05376178398728371
aF0.053760673850774765
aI4
aa(lp96
F-0.34120187163352966
aF-0.20101551711559296
aF-0.9182451367378235
aF0.1955755203962326
aF0.19557613134384155
aF0.12019697576761246
aF-0.4726657271385193
aF-0.8730061650276184
aF0.175730362534523
aF0.17573070526123047
aF0.11079306155443192
aF-0.857286810874939
aF-0.5027765035629272
aF1.4794812202453613
aF1.4794808626174927
aF0.2559055984020233
aF-0.8380395770072937
aF-0.48187360167503357
aF1.4749722480773926
aF1.4749712944030762
aF0.26812946796417236
aF-0.9478203058242798
aF-0.17246243357658386
aF0.16589422523975372
aF0.16589349508285522
aI4
aa(lp97
F-0.9852047562599182
aF0.09075752645730972
aF0.14537717401981354
aF0.2029113918542862
aF0.20291019976139069
aF-0.8607074022293091
aF0.0940634161233902
aF-0.500334620475769
aF0.030439548194408417
aF0.030441507697105408
aF-0.26260319352149963
aF-0.4290187358856201
aF-0.8642814755439758
aF1.0259956121444702
aF1.0259953737258911
aF-0.251198410987854
aF-0.40589573979377747
aF-0.8787195086479187
aF1.0051347017288208
aF1.0051348209381104
aF-0.3670368790626526
aF0.26858004927635193
aF-0.8905888795852661
aF0.3980163037776947
aF0.39801567792892456
aI4
aa(lp98
F-0.9379838109016418
aF0.27024832367897034
aF-0.21714536845684052
aF0.213204026222229
aF0.21320347487926483
aF-0.8455475568771362
aF0.28366586565971375
aF-0.45230865478515625
aF0.09433015435934067
aF0.0943307876586914
aF-0.6845463514328003
aF0.2965485453605652
aF-0.6659243106842041
aF1.3820377588272095
aF1.38203763961792
aF-0.5924755334854126
aF0.08299772441387177
aF-0.8013014793395996
aF1.2844510078430176
aF1.2844510078430176
aF-0.5132358074188232
aF0.30308568477630615
aF-0.8029495477676392
aF0.0834939256310463
aF0.08349249511957169
aI4
aa(lp99
F-0.7773897051811218
aF-0.2748459577560425
aF-0.5657957792282104
aF0.3890749216079712
aF0.38907524943351746
aF-0.9337379932403564
aF0.21591638028621674
aF-0.28550565242767334
aF0.1703735738992691
aF0.1703735738992691
aF-0.7122908234596252
aF-0.20668329298496246
aF-0.6707636713981628
aF1.3036911487579346
aF1.3036905527114868
aF-0.6258507966995239
aF-0.17341391742229462
aF-0.7604199051856995
aF1.2838479280471802
aF1.2838475704193115
aF-0.615756630897522
aF0.1816118061542511
aF-0.7667208909988403
aF0.09057784080505371
aF0.09057718515396118
aI4
aa(lp100
F0.012996334582567215
aF-0.17538949847221375
aF-0.9844132661819458
aF0.1298118382692337
aF0.1298118382692337
aF0.14404183626174927
aF0.1264253407716751
aF-0.9814624190330505
aF0.12343146651983261
aF0.12343049794435501
aF0.3345627188682556
aF-0.3590208888053894
aF-0.8713046908378601
aF1.2466317415237427
aF1.2466320991516113
aF0.39078277349472046
aF-0.36407220363616943
aF-0.8454232215881348
aF1.2523150444030762
aF1.2523151636123657
aF0.7174878716468811
aF-0.2571517527103424
aF-0.6473668813705444
aF0.07919531315565109
aF0.0791945606470108
aI4
aa(lp101
F0.7334417104721069
aF-0.21472971141338348
aF-0.6449452638626099
aF0.1352272927761078
aF0.13522596657276154
aF0.7266077995300293
aF-0.04207513853907585
aF-0.6857628226280212
aF0.13275548815727234
aF0.13275504112243652
aF0.7122032046318054
aF-0.6653746366500854
aF-0.22370319068431854
aF1.1469024419784546
aF1.1469025611877441
aF0.7227567434310913
aF-0.6721813082695007
aF-0.16060805320739746
aF1.1296930313110352
aF1.1296926736831665
aF0.9607275128364563
aF-0.2774892747402191
aF0.0015664072707295418
aF0.27493050694465637
aF0.2749285399913788
aI4
aa(lp102
F0.24654464423656464
aF0.2763228118419647
aF-0.928903341293335
aF0.13534705340862274
aF0.13534793257713318
aF0.27110475301742554
aF0.21175417304039001
aF-0.9389687776565552
aF0.11699657142162323
aF0.11699605733156204
aF0.37106916308403015
aF-0.6540513634681702
aF-0.6591847538948059
aF1.1552807092666626
aF1.1552799940109253
aF0.308089941740036
aF-0.7266825437545776
aF-0.6140138506889343
aF1.164373517036438
aF1.164373517036438
aF0.8907472491264343
aF0.20936702191829681
aF-0.4034040570259094
aF0.2655872702598572
aF0.26558682322502136
aI4
aa(lp103
F-0.4131637513637543
aF0.8417242765426636
aF-0.3475571572780609
aF0.31238463521003723
aF0.31238558888435364
aF-0.20213155448436737
aF0.7088263630867004
aF-0.6758018136024475
aF0.10841302573680878
aF0.10841357707977295
aF0.10647650063037872
aF0.04763669893145561
aF-0.9931734800338745
aF1.1460105180740356
aF1.1460106372833252
aF0.11445508152246475
aF0.015070131048560143
aF-0.9933140873908997
aF1.1701653003692627
aF1.1701654195785522
aF0.5530227422714233
aF0.7724199891090393
aF-0.3123032748699188
aF0.46042343974113464
aF0.4604215621948242
aI4
aa(lp104
F-0.7923255562782288
aF0.45758336782455444
aF-0.4035314619541168
aF0.2297385185956955
aF0.2297379970550537
aF-0.5162816643714905
aF0.4256949722766876
aF-0.743126630783081
aF0.08034201711416245
aF0.08034127205610275
aF0.1646614372730255
aF-0.11404401063919067
aF-0.9797350168228149
aF1.1279950141906738
aF1.1279957294464111
aF0.1144583448767662
aF-0.08941414207220078
aF-0.9893959164619446
aF1.1223143339157104
aF1.1223149299621582
aF-0.016305329278111458
aF0.5861146450042725
aF-0.8100640773773193
aF0.5166294574737549
aF0.5166255831718445
aI4
aa(lp105
F-0.8853031992912292
aF0.153031125664711
aF-0.4391123652458191
aF0.39894765615463257
aF0.3989468812942505
aF-0.604589581489563
aF0.21924974024295807
aF-0.76576828956604
aF0.05495211482048035
aF0.054951030761003494
aF-0.002626796020194888
aF-0.36808159947395325
aF-0.9297898411750793
aF1.2789931297302246
aF1.2789928913116455
aF-0.0008018602966330945
aF-0.3538858890533447
aF-0.9352883100509644
aF1.2892013788223267
aF1.289201021194458
aF-0.20127169787883759
aF0.23932474851608276
aF-0.9498490691184998
aF0.7001203298568726
aF0.7001222968101501
aI4
aa(lp106
F-0.2824971675872803
aF0.050480276346206665
aF-0.9579389095306396
aF0.38490134477615356
aF0.38490134477615356
aF-0.0021225628443062305
aF0.25543642044067383
aF-0.9668234586715698
aF0.21521668136119843
aF0.21521584689617157
aF0.2665287256240845
aF-0.6890842318534851
aF-0.6738883256912231
aF1.2869683504104614
aF1.2869681119918823
aF0.29825878143310547
aF-0.7016257047653198
aF-0.6471190452575684
aF1.296781063079834
aF1.2967805862426758
aF0.47118517756462097
aF-0.18196497857570648
aF-0.8630604147911072
aF0.09198825061321259
aF0.09198629856109619
aI4
aa(lp107
F0.24651962518692017
aF-0.0020884100813418627
aF-0.969135582447052
aF0.6107466220855713
aF0.6107466220855713
aF0.13555465638637543
aF0.42367106676101685
aF-0.8956157565116882
aF0.13768450915813446
aF0.13768495619297028
aF0.013135050423443317
aF-0.6357759237289429
aF-0.7717618942260742
aF1.3474111557006836
aF1.3474115133285522
aF0.030944619327783585
aF-0.6455631852149963
aF-0.7630797028541565
aF1.3424595594406128
aF1.3424595594406128
aF0.6517946720123291
aF0.5262283086776733
aF-0.5461204648017883
aF0.33504927158355713
aF0.33504927158355713
aI4
aa(lp108
F-0.30556702613830566
aF0.5958589315414429
aF-0.7426849603652954
aF0.5821643471717834
aF0.5821651220321655
aF-0.4290453791618347
aF0.7042450904846191
aF-0.565649151802063
aF0.10776437073945999
aF0.10776492208242416
aF-0.2814851999282837
aF0.3648199439048767
aF-0.8875092267990112
aF1.4767335653305054
aF1.476733922958374
aF-0.24243506789207458
aF0.34457284212112427
aF-0.9069150686264038
aF1.4767423868179321
aF1.4767422676086426
aF-0.06771092861890793
aF0.8282791376113892
aF-0.5562095046043396
aF0.3222753703594208
aF0.3222750127315521
aI4
aa(lp109
F0.4718487560749054
aF-0.4919881820678711
aF-0.7316462397575378
aF0.5771411657333374
aF0.577141523361206
aF0.5439042448997498
aF0.11694155633449554
aF-0.8309589624404907
aF0.31379926204681396
aF0.31379905343055725
aF0.3815939724445343
aF-0.7726298570632935
aF-0.5073749423027039
aF1.139182686805725
aF1.1391823291778564
aF0.4636598825454712
aF-0.7697098851203918
aF-0.43882372975349426
aF1.1323797702789307
aF1.132379412651062
aF0.720605731010437
aF-0.38152921199798584
aF-0.5789325833320618
aF0.41028299927711487
aF0.41028568148612976
aI4
aa(lp110
F-0.4453098773956299
aF0.29417333006858826
aF-0.8456719517707825
aF0.32649263739585876
aF0.3264922499656677
aF-0.32693132758140564
aF0.1299542337656021
aF-0.9360703229904175
aF0.8320707678794861
aF0.8320698738098145
aF0.1558699607849121
aF0.5365949273109436
aF-0.8293192982673645
aF0.21333807706832886
aF0.21333779394626617
aF0.32722538709640503
aF0.5082327127456665
aF-0.7966322898864746
aF0.1744661182165146
aF0.1744668036699295
aF0.6798587441444397
aF0.4513684809207916
aF-0.5779780745506287
aF0.33575206995010376
aF0.33575189113616943
aI5
aa(lp111
F-0.39140331745147705
aF0.3661406934261322
aF-0.8442418575286865
aF0.24061882495880127
aF0.24061833322048187
aF-0.3678286075592041
aF0.18583199381828308
aF-0.9111358523368835
aF0.8160873055458069
aF0.8160871863365173
aF0.17946800589561462
aF0.3825296461582184
aF-0.9063456058502197
aF0.13142269849777222
aF0.1314222514629364
aF0.34803086519241333
aF0.2965385615825653
aF-0.8893476724624634
aF0.09140697121620178
aF0.09140827506780624
aF0.7048130631446838
aF0.16233381628990173
aF-0.6905695796012878
aF0.206668883562088
aF0.20667004585266113
aI5
aa(lp112
F-0.29670020937919617
aF0.4902781546115875
aF-0.8195098042488098
aF0.23589076101779938
aF0.23589101433753967
aF-0.3113534152507782
aF0.317924439907074
aF-0.8955350518226624
aF0.8712301254272461
aF0.8712304830551147
aF0.25745704770088196
aF0.2997864782810211
aF-0.9186097979545593
aF0.17864865064620972
aF0.17864899337291718
aF0.3939096927642822
aF0.1701841950416565
aF-0.9032565951347351
aF0.12320856750011444
aF0.12320710718631744
aF0.6699080467224121
aF-0.09475380182266235
aF-0.7363727688789368
aF0.20849698781967163
aF0.20849668979644775
aI5
aa(lp113
F-0.5734732151031494
aF0.05430381000041962
aF-0.8174225091934204
aF0.2946806848049164
aF0.2946806848049164
aF-0.5304994583129883
aF-0.17718058824539185
aF-0.8289616107940674
aF0.826749861240387
aF0.8267500996589661
aF0.029094679281115532
aF0.01114675123244524
aF-0.9995145797729492
aF0.19294513761997223
aF0.1929454356431961
aF0.22524090111255646
aF-0.07905340939760208
aF-0.9710906744003296
aF0.14153391122817993
aF0.14153391122817993
aF0.5828063488006592
aF-0.16257958114147186
aF-0.796181321144104
aF0.1827210634946823
aF0.18272270262241364
aI5
aa(lp114
F-0.649358868598938
aF-0.6087507605552673
aF-0.45580217242240906
aF0.4745132625102997
aF0.47451314330101013
aF-0.3852470815181732
aF-0.7699245810508728
aF-0.5087248086929321
aF1.1245787143707275
aF1.1245781183242798
aF-0.17924711108207703
aF-0.5862848162651062
aF-0.7900256514549255
aF0.1116936057806015
aF0.11169414222240448
aF-0.00924279261380434
aF-0.5477942824363708
aF-0.8365619778633118
aF0.05661766231060028
aF0.05661976709961891
aF0.31687313318252563
aF-0.44464781880378723
aF-0.837782621383667
aF0.05291770398616791
aF0.05291657894849777
aI5
aa(lp115
F-0.2976876497268677
aF0.4810815155506134
aF-0.8245863318443298
aF0.0839444100856781
aF0.0839444100856781
aF-0.28457462787628174
aF0.3219606578350067
aF-0.9029720425605774
aF1.3331761360168457
aF1.3331762552261353
aF0.12689228355884552
aF0.2578633427619934
aF-0.9578125476837158
aF0.09100449830293655
aF0.09100449830293655
aF0.33556464314460754
aF0.13595837354660034
aF-0.9321542978286743
aF0.1854294240474701
aF0.1854294240474701
aF0.5630749464035034
aF-0.26047399640083313
aF-0.7842830419540405
aF0.46295157074928284
aF0.46295076608657837
aI5
aa(lp116
F-0.34376654028892517
aF0.47329026460647583
aF-0.8110616207122803
aF0.09116046130657196
aF0.09116046130657196
aF-0.17121876776218414
aF0.4263288080692291
aF-0.8882161378860474
aF1.3625526428222656
aF1.3625520467758179
aF0.49822843074798584
aF0.1752585470676422
aF-0.8491483330726624
aF0.25946375727653503
aF0.25946304202079773
aF0.6382514238357544
aF-0.0059304917231202126
aF-0.7698051333427429
aF0.17685630917549133
aF0.17685699462890625
aF0.5818794369697571
aF-0.05939996615052223
aF-0.8111029267311096
aF0.18251396715641022
aF0.18251265585422516
aI5
aa(lp117
F-0.45299187302589417
aF0.23629480600357056
aF-0.85962975025177
aF0.05783383920788765
aF0.057834867388010025
aF-0.2863065004348755
aF0.44992566108703613
aF-0.8459287881851196
aF1.4147999286651611
aF1.4147998094558716
aF0.20774728059768677
aF0.6178419589996338
aF-0.7583616971969604
aF0.30143970251083374
aF0.30143970251083374
aF0.43353959918022156
aF0.5788367986679077
aF-0.6906455755233765
aF0.2394474744796753
aF0.2394469678401947
aF0.6592993140220642
aF0.31169015169143677
aF-0.6842321753501892
aF0.19928699731826782
aF0.19928699731826782
aI5
aa(lp118
F-0.21165142953395844
aF0.2821528911590576
aF-0.9357315301895142
aF0.03532890975475311
aF0.035330597311258316
aF-0.10629631578922272
aF0.3042442798614502
aF-0.9466448426246643
aF1.3315880298614502
aF1.3315882682800293
aF0.5366625189781189
aF0.2633577287197113
aF-0.801645815372467
aF0.29384034872055054
aF0.2938409745693207
aF0.6915642619132996
aF0.07745406776666641
aF-0.7181501984596252
aF0.22551244497299194
aF0.22551244497299194
aF0.7210660576820374
aF-0.27180513739585876
aF-0.6373269557952881
aF0.19786179065704346
aF0.19786179065704346
aI5
aa(lp119
F-0.995786190032959
aF0.09123066067695618
aF-0.009322872385382652
aF0.0304669551551342
aF0.0304669551551342
aF-0.9864323139190674
aF-0.15767580270767212
aF0.0457114651799202
aF1.1113038063049316
aF1.111303448677063
aF-0.7403746247291565
aF0.23741094768047333
aF-0.6288732290267944
aF0.33101654052734375
aF0.3310163617134094
aF-0.6110090017318726
aF0.024291161447763443
aF-0.7912508249282837
aF0.2525232136249542
aF0.2525234520435333
aF-0.44336259365081787
aF-0.35590407252311707
aF-0.822655439376831
aF0.29704225063323975
aF0.2970430850982666
aI5
aa(lp120
F-0.6729985475540161
aF0.08956054598093033
aF-0.7342014908790588
aF0.3461792767047882
aF0.3461792767047882
aF-0.5187029838562012
aF-0.06781746447086334
aF-0.8522605895996094
aF0.7692786455154419
aF0.7692779898643494
aF-0.055857203900814056
aF0.5635045170783997
aF-0.8242223858833313
aF0.22019582986831665
aF0.22019556164741516
aF0.1762864738702774
aF0.6552940607070923
aF-0.7345152497291565
aF0.14224328100681305
aF0.14224371314048767
aF0.47595199942588806
aF0.4656907021999359
aF-0.7460575103759766
aF0.11739163845777512
aF0.1173921450972557
aI5
aa(lp121
F-0.031331077218055725
aF-0.45577287673950195
aF-0.8895444869995117
aF0.4979766011238098
aF0.4979766011238098
aF0.3563404083251953
aF-0.39519768953323364
aF-0.8466641902923584
aF1.17547607421875
aF1.1754765510559082
aF0.22478701174259186
aF-0.062306664884090424
aF-0.9724138379096985
aF0.05136461928486824
aF0.05136113613843918
aF0.29098430275917053
aF0.30898427963256836
aF-0.9054593443870544
aF0.26347556710243225
aF0.26347535848617554
aF0.6190583109855652
aF0.3614513576030731
aF-0.6972228288650513
aF0.2150363177061081
aF0.21503715217113495
aI5
aa(lp122
F0.5659647583961487
aF-0.5832095742225647
aF-0.582709550857544
aF0.17439055442810059
aF0.17439192533493042
aF0.5768102407455444
aF-0.08491445332765579
aF-0.8124527931213379
aF0.9558798670768738
aF0.9558805227279663
aF0.6056739091873169
aF0.03479525074362755
aF-0.794951856136322
aF0.24617637693881989
aF0.2461749166250229
aF0.6485741138458252
aF0.20241332054138184
aF-0.7337441444396973
aF0.12791714072227478
aF0.1279176026582718
aF0.8573203682899475
aF0.36813461780548096
aF-0.35983163118362427
aF0.0809221938252449
aF0.080922931432724
aI5
aa(lp123
F-0.619070291519165
aF0.004512012004852295
aF-0.7853226065635681
aF0.14304201304912567
aF0.14304284751415253
aF-0.6120825409889221
aF0.2775665521621704
aF-0.7404808402061462
aF1.3901728391647339
aF1.3901727199554443
aF-0.377983033657074
aF0.6570358872413635
aF-0.6522519588470459
aF0.2911580502986908
aF0.2911582589149475
aF-0.1898513287305832
aF0.8237457275390625
aF-0.5342279076576233
aF0.32992690801620483
aF0.3299272954463959
aF0.19166360795497894
aF0.7385092377662659
aF-0.6464280486106873
aF0.3065405488014221
aF0.30654072761535645
aI5
aa(lp124
F-0.5192590355873108
aF-0.21178476512432098
aF-0.8279596567153931
aF0.27721646428108215
aF0.27721601724624634
aF-0.44003552198410034
aF-0.08713150769472122
aF-0.8937431573867798
aF0.8874334692955017
aF0.8874340653419495
aF-0.406162828207016
aF0.6353514194488525
aF-0.6567803025245667
aF0.23118643462657928
aF0.231186181306839
aF-0.2579714357852936
aF0.7590030431747437
aF-0.5978003740310669
aF0.16141189634799957
aF0.16141152381896973
aF0.14449761807918549
aF0.7634570598602295
aF-0.6294869184494019
aF0.11637092381715775
aF0.11637040972709656
aI5
aa(lp125
F-0.09499425441026688
aF-0.3232436180114746
aF-0.9415358304977417
aF0.3479933738708496
aF0.34799355268478394
aF0.03330160677433014
aF-0.19705244898796082
aF-0.9798271656036377
aF0.8921896815299988
aF0.892189085483551
aF-0.2677428424358368
aF0.49283725023269653
aF-0.8279041647911072
aF0.237172469496727
aF0.23717424273490906
aF-0.2080356329679489
aF0.6725822687149048
aF-0.7101789712905884
aF0.17498625814914703
aF0.17498591542243958
aF0.1602475792169571
aF0.7994281053543091
aF-0.5789952278137207
aF0.12014377117156982
aF0.12014427036046982
aI5
aa(lp126
F0.2708561420440674
aF-0.5053838491439819
aF-0.8192826509475708
aF0.35414016246795654
aF0.3541405200958252
aF0.4449654519557953
aF-0.4333551526069641
aF-0.7837149500846863
aF0.9101012945175171
aF0.9101009368896484
aF0.24318625032901764
aF0.2487219274044037
aF-0.937548816204071
aF0.3063223958015442
aF0.3063216209411621
aF0.23526251316070557
aF0.4979799687862396
aF-0.8346661925315857
aF0.3301130533218384
aF0.3301139771938324
aF0.533882200717926
aF0.644980251789093
aF-0.546781599521637
aF0.26418960094451904
aF0.264188677072525
aI5
aa(lp127
F-0.320671945810318
aF0.5563986897468567
aF-0.7665441036224365
aF0.15323714911937714
aF0.1532379388809204
aF-0.44067326188087463
aF0.8923400044441223
aF-0.09765473008155823
aF1.2455284595489502
aF1.245527744293213
aF-0.16982430219650269
aF0.9680941700935364
aF-0.1842643916606903
aF0.3482517898082733
aF0.3482505679130554
aF-0.07521480321884155
aF0.9968972206115723
aF-0.0232078917324543
aF0.2981955409049988
aF0.29819756746292114
aF0.37473106384277344
aF0.9254817962646484
aF-0.055318668484687805
aF0.26103630661964417
aF0.26103585958480835
aI5
aa(lp128
F-0.2064657062292099
aF0.7600612640380859
aF-0.6161808967590332
aF0.11377481371164322
aF0.11377376317977905
aF-0.16829811036586761
aF0.8111738562583923
aF-0.5600649118423462
aF1.2516759634017944
aF1.2516765594482422
aF0.21312272548675537
aF0.8661762475967407
aF-0.4520147442817688
aF0.5412175059318542
aF0.5412175059318542
aF0.3479093611240387
aF0.8791446089744568
aF-0.3256744146347046
aF0.4247489273548126
aF0.4247480630874634
aF0.6112192273139954
aF0.6472346782684326
aF-0.4555198848247528
aF0.45396164059638977
aF0.45396164059638977
aI5
aa(lp129
F-0.6260155439376831
aF0.47750797867774963
aF-0.616515040397644
aF0.2944480776786804
aF0.2944486737251282
aF-0.4100596606731415
aF0.5950876474380493
aF-0.6911742091178894
aF0.8404474258422852
aF0.8404484987258911
aF-0.22557967901229858
aF0.9066271781921387
aF-0.3565683364868164
aF0.38011282682418823
aF0.3801094591617584
aF-0.20002956688404083
aF0.954925537109375
aF-0.21932931244373322
aF0.31341031193733215
aF0.3134109079837799
aF0.2796227037906647
aF0.9599496722221375
aF-0.01754348911345005
aF0.5028615593910217
aF0.5028640627861023
aI5
aa(lp130
F-0.19810368120670319
aF0.7009954452514648
aF-0.6850987076759338
aF0.11552958935499191
aF0.11552958935499191
aF-0.17965808510780334
aF0.7354755997657776
aF-0.6532981991767883
aF1.443304181098938
aF1.4433053731918335
aF0.5252001881599426
aF0.7354452013969421
aF-0.42811819911003113
aF0.5270132422447205
aF0.5270146727561951
aF0.6809550523757935
aF0.6508429646492004
aF-0.3357135057449341
aF0.45239168405532837
aF0.4523914158344269
aF0.7936024069786072
aF0.2938947081565857
aF-0.532748818397522
aF0.44981998205184937
aF0.44982025027275085
aI5
aa(lp131
F-0.3283189535140991
aF0.5966957807540894
aF-0.732230007648468
aF0.10489048808813095
aF0.10489105433225632
aF-0.4544808268547058
aF0.40595436096191406
aF-0.7928733825683594
aF1.135684609413147
aF1.135684847831726
aF0.25013765692710876
aF0.45571285486221313
aF-0.8542580604553223
aF0.33255693316459656
aF0.33255746960639954
aF0.4111894965171814
aF0.3379443883895874
aF-0.8465911746025085
aF0.1936764270067215
aF0.1936764270067215
aF0.396600604057312
aF-0.07522795349359512
aF-0.9149037003517151
aF0.2555679380893707
aF0.2555676996707916
aI5
aa(lp132
F-0.38413530588150024
aF0.28262585401535034
aF-0.8789554834365845
aF0.20935681462287903
aF0.20935796201229095
aF-0.3928314447402954
aF0.14887699484825134
aF-0.9074795842170715
aF0.7418968081474304
aF0.74189692735672
aF0.18316106498241425
aF0.5121431946754456
aF-0.8391432762145996
aF0.23139938712120056
aF0.23139938712120056
aF0.4593344032764435
aF0.5327600240707397
aF-0.7107592821121216
aF0.17323318123817444
aF0.17323283851146698
aF0.7081190347671509
aF0.2543545365333557
aF-0.6586890816688538
aF0.22309182584285736
aF0.22309128940105438
aI5
aa(lp133
F-0.5083946585655212
aF0.20914903283119202
aF-0.8353391289710999
aF0.2291131615638733
aF0.22911237180233002
aF-0.3915901780128479
aF0.21168409287929535
aF-0.895458996295929
aF0.9449616074562073
aF0.9449617266654968
aF0.061828769743442535
aF0.6738053560256958
aF-0.7363175749778748
aF0.2856045961380005
aF0.2856028974056244
aF0.2766321897506714
aF0.7172723412513733
aF-0.6395270824432373
aF0.18578019738197327
aF0.18577955663204193
aF0.5586681365966797
aF0.49468278884887695
aF-0.6657168865203857
aF0.14888745546340942
aF0.1488870531320572
aI5
aa(lp134
F-0.8233848810195923
aF-0.05758913606405258
aF-0.5645534992218018
aF0.32283759117126465
aF0.32283684611320496
aF-0.8038545250892639
aF-0.30388712882995605
aF-0.51134192943573
aF0.8094059228897095
aF0.8094058632850647
aF-0.13895811140537262
aF0.09338711202144623
aF-0.9858850836753845
aF0.26231274008750916
aF0.26231297850608826
aF0.18295913934707642
aF0.03353114053606987
aF-0.9825484752655029
aF0.18661347031593323
aF0.1866137832403183
aF0.40320441126823425
aF-0.33518651127815247
aF-0.8515141606330872
aF0.15209974348545074
aF0.15210092067718506
aI5
aa(lp135
F-0.4023473858833313
aF-0.152715802192688
aF-0.9026596546173096
aF0.2683311700820923
aF0.2683314085006714
aF-0.33164313435554504
aF-0.2607240080833435
aF-0.906661868095398
aF0.9106627702713013
aF0.9106636047363281
aF0.18919244408607483
aF0.34833404421806335
aF-0.9180793166160583
aF0.2012563943862915
aF0.20125728845596313
aF0.38095489144325256
aF0.44055917859077454
aF-0.8128843307495117
aF0.14932841062545776
aF0.1493276059627533
aF0.6690514087677002
aF0.20995581150054932
aF-0.7129437327384949
aF0.16380831599235535
aF0.163808673620224
aI5
aa(lp136
F0.2608494758605957
aF-0.8062304258346558
aF-0.5309895873069763
aF0.04378166049718857
aF0.043783023953437805
aF0.24243339896202087
aF-0.8481810688972473
aF-0.47097235918045044
aF1.318336844444275
aF1.3183364868164062
aF0.6387303471565247
aF-0.5313934683799744
aF-0.5564571022987366
aF0.13630050420761108
aF0.13630050420761108
aF0.8037710785865784
aF-0.3707309365272522
aF-0.4653070569038391
aF0.1939147412776947
aF0.19391535222530365
aF0.9061031937599182
aF-0.42160868644714355
aF-0.03497309610247612
aF0.22680509090423584
aF0.22680430114269257
aI5
aa(lp137
F-0.408642441034317
aF0.3631674349308014
aF-0.8373295068740845
aF0.16420294344425201
aF0.16420294344425201
aF-0.3788529932498932
aF0.3672603368759155
aF-0.8494646549224854
aF0.9057920575141907
aF0.9057912230491638
aF-0.01609739102423191
aF0.7588148713111877
aF-0.6511073708534241
aF0.2630566656589508
aF0.2630566656589508
aF0.18256595730781555
aF0.8399417400360107
aF-0.5110454559326172
aF0.25887858867645264
aF0.25887835025787354
aF0.4747222661972046
aF0.6904352903366089
aF-0.545836865901947
aF0.246703639626503
aF0.2467038929462433
aI5
aa(lp138
F-0.4343153238296509
aF0.24375098943710327
aF-0.8671537637710571
aF0.03192128241062164
aF0.03192128241062164
aF-0.4654608368873596
aF0.3250977098941803
aF-0.8231996297836304
aF1.044090747833252
aF1.0440915822982788
aF-0.03797761723399162
aF0.7718988656997681
aF-0.6346099376678467
aF0.3389834761619568
aF0.33898329734802246
aF0.14626477658748627
aF0.8022264242172241
aF-0.578825831413269
aF0.27071136236190796
aF0.2707120478153229
aF0.41043752431869507
aF0.6401883959770203
aF-0.649384081363678
aF0.2569771707057953
aF0.2569778859615326
aI5
aa(lp139
F-0.4614695906639099
aF0.32384100556373596
aF-0.8259376287460327
aF0.391239196062088
aF0.391239196062088
aF-0.3051658570766449
aF0.0512564554810524
aF-0.9509187340736389
aF0.7883622050285339
aF0.7883612513542175
aF0.11290020495653152
aF0.8369317054748535
aF-0.5355360507965088
aF0.3195890784263611
aF0.31958773732185364
aF0.2534050941467285
aF0.7967278957366943
aF-0.5486442446708679
aF0.144638329744339
aF0.14463873207569122
aF0.5806742310523987
aF0.6054103374481201
aF-0.5443305969238281
aF0.12341790646314621
aF0.12341935932636261
aI5
aa(lp140
F-0.46942687034606934
aF0.3602461516857147
aF-0.8061396479606628
aF0.20063255727291107
aF0.20063196122646332
aF-0.37732335925102234
aF0.2777290940284729
aF-0.8834554553031921
aF0.9506193995475769
aF0.9506186842918396
aF0.1833600103855133
aF0.5387321710586548
aF-0.8222814202308655
aF0.7740955948829651
aF0.7740949988365173
aF0.40205395221710205
aF0.5671894550323486
aF-0.7187828421592712
aF0.8478031754493713
aF0.8478027582168579
aF0.590143620967865
aF0.22486786544322968
aF-0.7753482460975647
aF0.811793327331543
aF0.8117936253547668
aI5
aa(lp141
F-0.9333816766738892
aF0.34127098321914673
aF-0.11105276644229889
aF0.150464728474617
aF0.1504635363817215
aF-0.5924487113952637
aF0.3408138155937195
aF-0.7299661636352539
aF0.21659334003925323
aF0.2165941745042801
aF-0.5382159352302551
aF0.2860797047615051
aF-0.792768657207489
aF0.05915619432926178
aF0.05915316939353943
aF-0.3924415707588196
aF0.13865074515342712
aF-0.909266471862793
aF0.09409699589014053
aF0.09409762918949127
aF-0.07394570857286453
aF0.4566914737224579
aF-0.8865466713905334
aF0.6443600058555603
aF0.6443607807159424
aI1
aa(lp142
F-0.4692443311214447
aF0.7640463709831238
aF-0.4427672326564789
aF0.01943672075867653
aF0.019442854449152946
aF-0.43277695775032043
aF0.09127870202064514
aF-0.8968679904937744
aF0.04798056557774544
aF0.047978080809116364
aF-0.5020782947540283
aF0.1548280268907547
aF-0.8508499264717102
aF0.06184060499072075
aF0.061843499541282654
aF-0.5173995494842529
aF-0.34265199303627014
aF-0.7841475605964661
aF0.024122370406985283
aF0.024124842137098312
aF-0.5287940502166748
aF-0.31796491146087646
aF-0.786940336227417
aF0.02688068151473999
aF0.026878463104367256
aI2
aa(lp143
F-0.29871654510498047
aF0.8277024030685425
aF-0.47505488991737366
aF0.07158888876438141
aF0.0715872272849083
aF-0.4816897511482239
aF0.056067559868097305
aF-0.8745463490486145
aF0.046797819435596466
aF0.046797819435596466
aF-0.5347767472267151
aF0.13366013765335083
aF-0.8343552947044373
aF0.05606620013713837
aF0.05606832727789879
aF-0.6135626435279846
aF-0.27174094319343567
aF-0.7414160370826721
aF0.11531998962163925
aF0.11531998962163925
aF-0.6286571025848389
aF-0.27040910720825195
aF-0.7291563749313354
aF0.10360512882471085
aF0.10360340029001236
aI2
aa(lp144
F-0.111504465341568
aF0.7745063900947571
aF-0.6226608157157898
aF0.04888179525732994
aF0.04888423532247543
aF-0.39432960748672485
aF0.13541169464588165
aF-0.9089377522468567
aF0.10852369666099548
aF0.10852479189634323
aF-0.38293060660362244
aF0.3079177141189575
aF-0.8709482550621033
aF0.10889890789985657
aF0.10889836400747299
aF-0.7285977005958557
aF-0.1721416413784027
aF-0.662957489490509
aF0.12688742578029633
aF0.12688837945461273
aF-0.7612006664276123
aF-0.15358982980251312
aF-0.6300665140151978
aF0.10031462460756302
aF0.10031641274690628
aI2
aa(lp145
F-0.009014356881380081
aF0.8000941872596741
aF-0.5998067259788513
aF0.11788475513458252
aF0.11788222193717957
aF-0.21729826927185059
aF0.12607435882091522
aF-0.9679291248321533
aF0.2965727150440216
aF0.29657188057899475
aF-0.18081550300121307
aF0.3165358304977417
aF-0.9311878681182861
aF0.3623770475387573
aF0.36237654089927673
aF-0.8271104097366333
aF-0.15893228352069855
aF-0.5391001105308533
aF0.04151550307869911
aF0.041518375277519226
aF-0.8728329539299011
aF-0.13139663636684418
aF-0.46999746561050415
aF0.03933873772621155
aF0.039337221533060074
aI2
aa(lp146
F0.053113650530576706
aF0.7140363454818726
aF-0.6980909109115601
aF0.11666931211948395
aF0.11666931211948395
aF-0.40710094571113586
aF0.13148869574069977
aF-0.9038691520690918
aF0.13134899735450745
aF0.1313476264476776
aF-0.47851744294166565
aF0.02131493389606476
aF-0.877819299697876
aF0.10115212202072144
aF0.10115094482898712
aF-0.8712031841278076
aF-0.1133655458688736
aF-0.477653831243515
aF0.019725915044546127
aF0.01972893625497818
aF-0.9323392510414124
aF-0.15390679240226746
aF-0.32719460129737854
aF0.021888839080929756
aF0.021891562268137932
aI2
aa(lp147
F-0.7316663861274719
aF0.2634519934654236
aF-0.6286949515342712
aF0.09350708872079849
aF0.09350772947072983
aF-0.14694277942180634
aF0.34962037205696106
aF-0.9252963662147522
aF0.07724640518426895
aF0.07724563032388687
aF-0.20796553790569305
aF0.32359808683395386
aF-0.9230572581291199
aF0.06278152018785477
aF0.06278152018785477
aF0.23207421600818634
aF0.25661927461624146
aF-0.938236653804779
aF0.0976211279630661
aF0.0976211279630661
aF0.15990197658538818
aF0.2952398359775543
aF-0.941947340965271
aF0.05651117488741875
aF0.05651117488741875
aI2
aa(lp148
F0.03244122862815857
aF0.8592591285705566
aF-0.5105108618736267
aF0.16169685125350952
aF0.16169610619544983
aF0.8347778916358948
aF0.5376554131507874
aF-0.11862809956073761
aF0.03955185040831566
aF0.03955185040831566
aF0.7758119702339172
aF0.5967522859573364
aF-0.2049449235200882
aF0.05414971709251404
aF0.05415081977844238
aF0.9609333276748657
aF0.15879948437213898
aF-0.22669319808483124
aF0.07440035790205002
aF0.07440035790205002
aF0.9464104771614075
aF0.2824512720108032
aF-0.15661585330963135
aF0.15912418067455292
aF0.15912456810474396
aI2
aa(lp149
F0.4599171578884125
aF0.867857038974762
aF-0.18788354098796844
aF0.26976582407951355
aF0.26976558566093445
aF0.948621928691864
aF0.29200831055641174
aF-0.12185005098581314
aF0.056837379932403564
aF0.056837379932403564
aF0.8846467137336731
aF0.4132653474807739
aF-0.21589785814285278
aF0.06402049213647842
aF0.0640186220407486
aF0.9275564551353455
aF0.1087360605597496
aF-0.357512891292572
aF0.31189513206481934
aF0.3118949234485626
aF0.9189640283584595
aF0.16497471928596497
aF-0.35817381739616394
aF0.27819570899009705
aF0.27819550037384033
aI2
aa(lp150
F0.13460558652877808
aF0.7660855054855347
aF-0.6284857988357544
aF0.08522491902112961
aF0.08522491902112961
aF-0.025334930047392845
aF-0.07145775854587555
aF-0.9971217513084412
aF0.16371764242649078
aF0.16371764242649078
aF-0.08096995204687119
aF0.027559680864214897
aF-0.996335506439209
aF0.17979983985424042
aF0.17979983985424042
aF-0.8235682845115662
aF-0.12110823392868042
aF-0.5541371703147888
aF0.02562965266406536
aF0.02563430555164814
aF-0.8286619782447815
aF-0.05575978010892868
aF-0.5569651126861572
aF0.03401175141334534
aF0.034008245915174484
aI2
aa(lp151
F-0.362422913312912
aF0.48505985736846924
aF-0.7958433628082275
aF0.1821461170911789
aF0.18214645981788635
aF0.1374124437570572
aF0.7798731327056885
aF-0.6106681823730469
aF0.14727067947387695
aF0.1472698599100113
aF0.14513960480690002
aF0.7767514586448669
aF-0.6128553748130798
aF0.12945541739463806
aF0.12945541739463806
aF0.6732691526412964
aF0.48403167724609375
aF-0.5589470863342285
aF0.048831757158041
aF0.048831757158041
aF0.5883932709693909
aF0.5257719159126282
aF-0.6142940521240234
aF0.021559569984674454
aF0.021556803956627846
aI2
aa(lp152
F-0.757046639919281
aF0.532118022441864
aF-0.37911829352378845
aF0.10819024592638016
aF0.10819245129823685
aF-0.2754712998867035
aF0.8827426433563232
aF-0.3806324601173401
aF0.0750415101647377
aF0.0750415101647377
aF-0.34181439876556396
aF0.8408477306365967
aF-0.419687956571579
aF0.0755494087934494
aF0.0755494087934494
aF0.17119796574115753
aF0.7779358625411987
aF-0.6045717000961304
aF0.1034649908542633
aF0.10346556454896927
aF-0.00631669769063592
aF0.791452169418335
aF-0.611198365688324
aF0.07616054266691208
aF0.07616132497787476
aI2
aa(lp153
F-0.3232111632823944
aF0.6185258626937866
aF-0.7162123918533325
aF0.05145740881562233
aF0.05145740881562233
aF-0.6434497833251953
aF-0.11748132854700089
aF-0.7564194798469543
aF0.031192081049084663
aF0.03118825890123844
aF-0.6628588438034058
aF-0.06356633454561234
aF-0.7460411787033081
aF0.02885507605969906
aF0.02885301038622856
aF-0.976177990436554
aF-0.15388058125972748
aF-0.15296176075935364
aF0.04991268366575241
aF0.04991507530212402
aF-0.9733368754386902
aF-0.1347939372062683
aF-0.18559642136096954
aF0.037119537591934204
aF0.03711632266640663
aI2
aa(lp154
F-0.6915788054466248
aF0.5776156783103943
aF-0.4336806535720825
aF0.09266706556081772
aF0.09266835451126099
aF0.06178710237145424
aF0.5744568109512329
aF-0.8161996006965637
aF0.028737077489495277
aF0.028741225600242615
aF-0.02588881179690361
aF0.5521612763404846
aF-0.833335280418396
aF0.05455348268151283
aF0.05455239117145538
aF0.37582576274871826
aF0.16514325141906738
aF-0.9118567705154419
aF0.039518676698207855
aF0.03952018544077873
aF0.3460829555988312
aF0.18506982922554016
aF-0.9197694659233093
aF0.02615457773208618
aF0.02615913562476635
aI2
aa(lp155
F-0.08578260242938995
aF0.8349606990814209
aF-0.5435824394226074
aF0.2104809284210205
aF0.2104795128107071
aF0.20049890875816345
aF-0.053026337176561356
aF-0.9782578349113464
aF0.13991953432559967
aF0.13992038369178772
aF0.18794545531272888
aF0.03177059814333916
aF-0.9816654324531555
aF0.128884419798851
aF0.12888626754283905
aF-0.15135416388511658
aF-0.35106730461120605
aF-0.9240365624427795
aF0.5449425578117371
aF0.544942319393158
aF-0.1428576558828354
aF-0.3566225469112396
aF-0.9232616424560547
aF0.5225657820701599
aF0.5225655436515808
aI2
aa(lp156
F-0.9363633394241333
aF0.20658709108829498
aF0.28380534052848816
aF0.5944713354110718
aF0.5944704413414001
aF-0.5480966567993164
aF0.5877506732940674
aF-0.5950961112976074
aF1.2998112440109253
aF1.2998114824295044
aF-0.6424793004989624
aF0.5228782892227173
aF-0.5601951479911804
aF1.2705031633377075
aF1.2705034017562866
aF-0.6635189652442932
aF0.5217892527580261
aF-0.5361701846122742
aF1.2946600914001465
aF1.2946603298187256
aF-0.7864874005317688
aF0.37382927536964417
aF-0.49161896109580994
aF1.3550808429718018
aF1.3550809621810913
aI1
aa(lp157
F-0.5053903460502625
aF-0.02269149012863636
aF-0.8625923991203308
aF0.6916301250457764
aF0.6916301250457764
aF-0.07488987594842911
aF0.33151084184646606
aF-0.9404744505882263
aF1.3680905103683472
aF1.3680903911590576
aF-0.12924328446388245
aF0.1792759895324707
aF-0.9752724170684814
aF1.5323745012283325
aF1.532374382019043
aF-0.07987084239721298
aF-0.20692531764507294
aF-0.9750910401344299
aF1.5337283611297607
aF1.5337287187576294
aF-0.15807276964187622
aF-0.23491841554641724
aF-0.9590757489204407
aF1.5367112159729004
aF1.5367110967636108
aI3
aa(lp158
F0.43702322244644165
aF0.39273038506507874
aF-0.809180736541748
aF0.6145645976066589
aF0.6145648956298828
aF0.20111575722694397
aF0.5021067261695862
aF-0.8410953283309937
aF1.449889898300171
aF1.44989013671875
aF0.15590983629226685
aF0.48577573895454407
aF-0.8600663542747498
aF1.4517072439193726
aF1.4517072439193726
aF0.050426654517650604
aF0.4833846688270569
aF-0.8739544153213501
aF1.4555388689041138
aF1.4555385112762451
aF0.14135874807834625
aF0.9014137983322144
aF-0.4092319905757904
aF0.3701435923576355
aF0.3701435923576355
aI3
aa(lp159
F0.3181164264678955
aF0.8371816277503967
aF-0.44489189982414246
aF0.6146485209465027
aF0.6146486401557922
aF0.07010468095541
aF0.893226683139801
aF-0.4441075026988983
aF1.4507781267166138
aF1.450777530670166
aF0.04776434227824211
aF0.8903465270996094
aF-0.4527711570262909
aF1.451136589050293
aF1.451136827468872
aF-0.06967226415872574
aF0.8995210528373718
aF-0.4312862753868103
aF1.4500551223754883
aF1.450055718421936
aF0.09169763326644897
aF0.9689632654190063
aF0.22956860065460205
aF0.4016363024711609
aF0.4016367495059967
aI3
aa(lp160
F-0.09743521362543106
aF0.791806161403656
aF-0.6029505729675293
aF0.6146827340126038
aF0.6146834492683411
aF-0.29992541670799255
aF0.6759135127067566
aF-0.6731906533241272
aF1.4498398303985596
aF1.4498404264450073
aF-0.3251813054084778
aF0.6590741872787476
aF-0.6781432628631592
aF1.449859619140625
aF1.4498597383499146
aF-0.3971485495567322
aF0.5713866353034973
aF-0.7181854844093323
aF1.44877028465271
aF1.4487695693969727
aF-0.5693469643592834
aF0.819570779800415
aF0.06440353393554688
aF1.1896113157272339
aF1.1896119117736816
aI3
aa(lp161
F0.9546601176261902
aF0.21337197721004486
aF-0.20759719610214233
aF0.712593138217926
aF0.7125933766365051
aF0.6342512965202332
aF0.6020817160606384
aF-0.4849978983402252
aF1.4474838972091675
aF1.4474835395812988
aF0.7331216335296631
aF0.5235806107521057
aF-0.43404605984687805
aF1.4471077919006348
aF1.4471081495285034
aF0.6430457234382629
aF0.6018347144126892
aF-0.47358962893486023
aF1.446620225906372
aF1.446620225906372
aF0.5767807364463806
aF0.7320083379745483
aF-0.3626125752925873
aF1.4369981288909912
aF1.4369968175888062
aI3
aa(lp162
F0.7724514007568359
aF0.6296460628509521
aF0.08285418897867203
aF0.5689626932144165
aF0.5689621567726135
aF0.31629374623298645
aF0.8714430332183838
aF-0.3748936355113983
aF1.4434128999710083
aF1.4434130191802979
aF0.3639377951622009
aF0.9112640619277954
aF-0.19273582100868225
aF1.4289271831512451
aF1.4289274215698242
aF0.2647162675857544
aF0.9332342147827148
aF-0.24289757013320923
aF1.4181272983551025
aF1.4181265830993652
aF0.16368591785430908
aF0.9394941329956055
aF-0.30092787742614746
aF1.4372260570526123
aF1.4372258186340332
aI3
aI3
aI3
aI3
aI3
aI3
aI3
aI3
aag162
ag162
ag162
ag162
ag162
ag162
ag162
a(lp163
F0.9800711870193481
aF-0.042935702949762344
aF0.19395138323307037
aF0.1357118785381317
aF0.13571099936962128
aF0.885424017906189
aF0.24387140572071075
aF0.3956654369831085
aF1.1345030069351196
aF1.13450288772583
aF0.9040897488594055
aF0.306641548871994
aF0.2976452112197876
aF1.1146445274353027
aF1.1146446466445923
aF0.873994767665863
aF0.3477321267127991
aF0.33943408727645874
aF1.0335674285888672
aF1.0335667133331299
aF0.7896608710289001
aF0.2543819546699524
aF0.5583239793777466
aF0.16907073557376862
aF0.16907039284706116
aI3
aa(lp164
F-0.7068584561347961
aF-0.28787314891815186
aF-0.6461269855499268
aF0.5286560654640198
aF0.5286561846733093
aF-0.5251997709274292
aF0.17762580513954163
aF-0.8322344422340393
aF0.9910383224487305
aF0.9910378456115723
aF-0.077531598508358
aF-0.9699951410293579
aF-0.23043064773082733
aF1.46552574634552
aF1.4655259847640991
aF-0.10411830246448517
aF-0.9827562570571899
aF-0.1528061181306839
aF1.482295036315918
aF1.4822955131530762
aF-0.27835822105407715
aF-0.950711190700531
aF-0.13661924004554749
aF1.494569182395935
aF1.4945690631866455
aI1
aa(lp165
F-0.4065052568912506
aF-0.08583592623472214
aF-0.909607470035553
aF0.6738823652267456
aF0.6738826036453247
aF0.04036354273557663
aF0.2403620034456253
aF-0.9698437452316284
aF0.10246581584215164
aF0.10246464610099792
aF-0.1333085596561432
aF-0.7615832686424255
aF-0.6342080235481262
aF1.447952389717102
aF1.4479522705078125
aF-0.16843989491462708
aF-0.7744952440261841
aF-0.6097418665885925
aF1.4506782293319702
aF1.4506785869598389
aF-0.36467069387435913
aF-0.7261312007904053
aF-0.5828797221183777
aF1.4627543687820435
aF1.462754726409912
aI6
aa(lp166
F-0.4546576142311096
aF-0.027910226956009865
aF-0.8902289271354675
aF0.6276552081108093
aF0.6276549100875854
aF0.13690894842147827
aF0.050394535064697266
aF-0.9893009066581726
aF0.08722653239965439
aF0.0872272178530693
aF-0.49220407009124756
aF-0.725347101688385
aF-0.4812553822994232
aF1.478441596031189
aF1.4784419536590576
aF-0.5539769530296326
aF-0.735556960105896
aF-0.38995569944381714
aF1.5282559394836426
aF1.528255820274353
aF-0.6751384735107422
aF-0.5867205262184143
aF-0.44715434312820435
aF1.525389552116394
aF1.525389313697815
aI6
aa(lp167
F-0.2656439244747162
aF-0.4830814003944397
aF-0.8343055248260498
aF0.616633951663971
aF0.6166340708732605
aF0.3047335147857666
aF-0.18633641302585602
aF-0.9340322613716125
aF0.09212246537208557
aF0.09212246537208557
aF-0.12581153213977814
aF-0.9736548662185669
aF-0.19017809629440308
aF1.5127867460250854
aF1.512786626815796
aF-0.18691912293434143
aF-0.9738094210624695
aF-0.12944680452346802
aF1.5241942405700684
aF1.524194359779358
aF-0.3450421988964081
aF-0.9095872640609741
aF-0.23150970041751862
aF1.5277892351150513
aF1.5277903079986572
aI6
aa(lp168
F-0.29053667187690735
aF-0.1538124531507492
aF-0.944420576095581
aF0.6552219986915588
aF0.6552219986915588
aF0.2327476590871811
aF0.01520241517573595
aF-0.9724183082580566
aF0.0916677936911583
aF0.09166909754276276
aF-0.2030886709690094
aF-0.8371889591217041
aF-0.5078086853027344
aF1.498293161392212
aF1.498292326927185
aF-0.2613719403743744
aF-0.8495203852653503
aF-0.4582573473453522
aF1.5008777379989624
aF1.5008771419525146
aF-0.4400845170021057
aF-0.7604686617851257
aF-0.477507084608078
aF1.4933887720108032
aF1.4933900833129883
aI6
aa(lp169
F-0.30542898178100586
aF0.3863134980201721
aF-0.8703303933143616
aF0.5287686586380005
aF0.5287690162658691
aF0.09841598570346832
aF-0.154152512550354
aF-0.9831333756446838
aF0.15936775505542755
aF0.1593681275844574
aF-0.8651094436645508
aF0.08766255527734756
aF-0.49386322498321533
aF1.2494533061981201
aF1.2494531869888306
aF-0.9038406610488892
aF0.1291099637746811
aF-0.40792492032051086
aF1.2219680547714233
aF1.2219679355621338
aF-0.8750487565994263
aF0.3409876227378845
aF-0.3435361683368683
aF1.542281150817871
aF1.5422815084457397
aI6
aa(lp170
F-0.2172718048095703
aF-0.4366462528705597
aF-0.8730022311210632
aF0.6028633713722229
aF0.602863073348999
aF-0.19222226738929749
aF0.07716046273708344
aF-0.9783132672309875
aF0.0925104096531868
aF0.09250976890325546
aF0.6071373820304871
aF-0.4942789077758789
aF-0.6221516132354736
aF1.1547507047653198
aF1.1547515392303467
aF0.6039406061172485
aF-0.5660164952278137
aF-0.5611427426338196
aF1.1380504369735718
aF1.13805091381073
aF0.43632081151008606
aF-0.6709727048873901
aF-0.5995163321495056
aF1.1217719316482544
aF1.1217721700668335
aI6
aa(lp171
F-0.36717307567596436
aF-0.7081155776977539
aF-0.6031220555305481
aF0.41413983702659607
aF0.41413968801498413
aF0.086658775806427
aF-0.12345916777849197
aF-0.9885585904121399
aF0.07240505516529083
aF0.07240340858697891
aF0.6251755952835083
aF-0.6370788216590881
aF-0.45087262988090515
aF1.181876301765442
aF1.181876540184021
aF0.5970894694328308
aF-0.631995677947998
aF-0.4940299987792969
aF1.1334565877914429
aF1.133456826210022
aF0.4308928847312927
aF-0.7850883603096008
aF-0.4449353516101837
aF1.1224606037139893
aF1.1224608421325684
aI6
aa(lp172
F-0.24886532127857208
aF-0.5194120407104492
aF-0.8174822330474854
aF0.4091556966304779
aF0.40915539860725403
aF0.3922542929649353
aF0.10684451460838318
aF-0.9136306047439575
aF0.0732414647936821
aF0.07324227690696716
aF0.6540213823318481
aF-0.6092545390129089
aF-0.44840267300605774
aF1.1001062393188477
aF1.1001065969467163
aF0.6296013593673706
aF-0.651455283164978
aF-0.42332977056503296
aF1.0835800170898438
aF1.0835797786712646
aF0.43365582823753357
aF-0.7761507630348206
aF-0.4577472507953644
aF1.0891809463500977
aF1.0891814231872559
aI6
aa(lp173
F0.01930103451013565
aF0.43670567870140076
aF-0.8993973731994629
aF0.2606390118598938
aF0.2606396973133087
aF0.5130711793899536
aF0.24795372784137726
aF-0.8217522501945496
aF0.07861760258674622
aF0.07861760258674622
aF0.3735332190990448
aF-0.7715368270874023
aF-0.5149796605110168
aF1.0984050035476685
aF1.098404884338379
aF0.312467098236084
aF-0.8112503886222839
aF-0.4942035973072052
aF1.11881422996521
aF1.1188143491744995
aF0.15195822715759277
aF-0.7718597054481506
aF-0.6173664927482605
aF1.028433084487915
aF1.0284329652786255
aI6
aa(lp174
F-0.2748992145061493
aF0.6488513350486755
aF-0.7095226645469666
aF0.3508985936641693
aF0.3508993089199066
aF-0.2325183004140854
aF0.3168928623199463
aF-0.9195183515548706
aF0.06585568189620972
aF0.06585477292537689
aF-0.841325044631958
aF0.5183990597724915
aF-0.15308359265327454
aF1.024011254310608
aF1.0240113735198975
aF-0.8401992321014404
aF0.540414571762085
aF-0.044914595782756805
aF1.0535895824432373
aF1.0535894632339478
aF-0.719454288482666
aF0.6944877505302429
aF0.008509847335517406
aF1.4976977109909058
aF1.4976977109909058
aI6
aa(lp175
F-0.5775058269500732
aF0.47071489691734314
aF-0.6670190691947937
aF0.2638917863368988
aF0.2638924717903137
aF-0.4573688805103302
aF0.18697352707386017
aF-0.8693990111351013
aF0.09486778825521469
aF0.09486778825521469
aF-0.9136648774147034
aF0.3900166153907776
aF0.11447051912546158
aF1.31167471408844
aF1.3116748332977295
aF-0.8786457777023315
aF0.4301696717739105
aF0.20720946788787842
aF1.317417860031128
aF1.317418098449707
aF-0.7816916108131409
aF0.600763201713562
aF0.16745693981647491
aF1.3200743198394775
aF1.320074200630188
aI6
aa(lp176
F0.07235344499349594
aF0.8007713556289673
aF-0.5945841670036316
aF0.06347876787185669
aF0.06347876787185669
aF-0.3209031820297241
aF0.5441944003105164
aF-0.7751603722572327
aF0.03260130435228348
aF0.032603129744529724
aF-0.24663546681404114
aF0.9532902836799622
aF0.1743806153535843
aF1.3791530132293701
aF1.3791530132293701
aF-0.21444293856620789
aF0.9468439221382141
aF0.2397933453321457
aF1.3878930807113647
aF1.387892484664917
aF0.005222873296588659
aF0.9455606341362
aF0.32540398836135864
aF1.401023030281067
aF1.401021957397461
aI6
aa(lp177
F0.6889460682868958
aF0.5768454074859619
aF-0.4388650059700012
aF0.043808888643980026
aF0.04380616918206215
aF0.3260829746723175
aF0.5861111879348755
aF-0.7417166233062744
aF0.06016187369823456
aF0.06016385555267334
aF0.4404475688934326
aF0.8080636262893677
aF0.3912021517753601
aF1.3987221717834473
aF1.3987224102020264
aF0.4669729471206665
aF0.7841740846633911
aF0.4086654484272003
aF1.4003806114196777
aF1.4003806114196777
aF0.6154618859291077
aF0.6610857248306274
aF0.4291529357433319
aF1.400688886642456
aF1.4006891250610352
aI6
aa(lp178
F0.9369595050811768
aF0.2532711327075958
aF-0.24075014889240265
aF0.7578505277633667
aF0.7578511238098145
aF0.5439008474349976
aF0.49553295969963074
aF-0.6772140860557556
aF0.26892203092575073
aF0.26892203092575073
aF0.5417237877845764
aF0.6695619225502014
aF0.5081555843353271
aF1.4009240865707397
aF1.4009236097335815
aF0.5602420568466187
aF0.6394469738006592
aF0.5265324711799622
aF1.400519609451294
aF1.4005190134048462
aF0.6744263768196106
aF0.49136772751808167
aF0.5510960221290588
aF1.4003757238388062
aF1.4003762006759644
aI6
aa(lp179
F0.9985265135765076
aF0.052457742393016815
aF0.013887601904571056
aF0.7566681504249573
aF0.7566683888435364
aF0.7681604623794556
aF0.45779433846473694
aF-0.44760891795158386
aF0.16726955771446228
aF0.16727027297019958
aF0.6090044379234314
aF0.43015024065971375
aF0.6663966178894043
aF1.4006284475326538
aF1.4006285667419434
aF0.6265228986740112
aF0.40294840931892395
aF0.6671594381332397
aF1.400557279586792
aF1.4005571603775024
aF0.7026401162147522
aF0.2307731956243515
aF0.6730827689170837
aF1.4003736972808838
aF1.4003734588623047
aI6
aa(lp180
F0.9504988789558411
aF0.22938866913318634
aF0.20960135757923126
aF0.526800811290741
aF0.5268004536628723
aF0.8012992143630981
aF0.5361666679382324
aF-0.2654147446155548
aF0.3978355824947357
aF0.39783602952957153
aF0.43560755252838135
aF0.5243525505065918
aF0.7316424250602722
aF1.395281434059143
aF1.3952802419662476
aF0.4472458064556122
aF0.5063574314117432
aF0.7372742295265198
aF1.3944830894470215
aF1.3944839239120483
aF0.51125168800354
aF0.33334171772003174
aF0.7921521663665771
aF1.3934139013290405
aF1.3934135437011719
aI6
aa(lp181
F-0.5305909514427185
aF-0.06036198511719704
aF-0.845475971698761
aF0.5098966956138611
aF0.5098965764045715
aF-0.46379801630973816
aF0.3056037724018097
aF-0.8315634727478027
aF0.11695519834756851
aF0.11695519834756851
aF0.0939454659819603
aF-0.7393838167190552
aF-0.6666977405548096
aF1.3119332790374756
aF1.3119332790374756
aF0.09539109468460083
aF-0.7638207674026489
aF-0.6383403539657593
aF1.313248634338379
aF1.313248872756958
aF-0.10232358425855637
aF-0.6647303700447083
aF-0.7400428056716919
aF0.6755085587501526
aF0.675508439540863
aI6
aa(lp182
F-0.3998550474643707
aF-0.7674388289451599
aF-0.5011520981788635
aF0.5139490962028503
aF0.5139485001564026
aF-0.053392935544252396
aF-0.4778002202510834
aF-0.8768444657325745
aF0.01737370155751705
aF0.017366837710142136
aF-0.21418790519237518
aF-0.9767126441001892
aF0.012490744702517986
aF1.4190369844436646
aF1.4190367460250854
aF-0.20075620710849762
aF-0.9753677845001221
aF0.09140455722808838
aF1.4195287227630615
aF1.4195290803909302
aF-0.36342886090278625
aF-0.9302318096160889
aF0.050874415785074234
aF0.6760203242301941
aF0.6760210990905762
aI6
aa(lp183
F-0.15425388514995575
aF-0.8883833289146423
aF-0.4324125647544861
aF0.2603583037853241
aF0.2603583037853241
aF0.1193414106965065
aF-0.9147025346755981
aF-0.3861047625541687
aF0.5802406072616577
aF0.5802394151687622
aF-0.04403134807944298
aF-0.6454223990440369
aF0.7625556588172913
aF1.4375628232955933
aF1.4375629425048828
aF-0.1048683151602745
aF-0.5787989497184753
aF0.8086991310119629
aF1.561527967453003
aF1.5615288019180298
aF-0.26747646927833557
aF-0.6541302800178528
aF0.7075096964836121
aF1.476409673690796
aF1.4764090776443481
aI6
aa(lp184
F0.3434349298477173
aF-0.6788865327835083
aF-0.6489726305007935
aF0.41151466965675354
aF0.4115142226219177
aF0.8611724376678467
aF-0.1508832573890686
aF-0.4854031503200531
aF0.02153743803501129
aF0.021534670144319534
aF0.435939759016037
aF-0.8993614912033081
aF0.03325033560395241
aF1.0010910034179688
aF1.001090407371521
aF0.20378391444683075
aF-0.950242280960083
aF0.23560939729213715
aF0.9417216181755066
aF0.9417214393615723
aF0.0776662528514862
aF-0.9930289387702942
aF0.08866512030363083
aF0.9966472387313843
aF0.9966481328010559
aI6
aa(lp185
F0.35923799872398376
aF-0.0788138285279274
aF-0.9299120903015137
aF0.43516284227371216
aF0.435163289308548
aF0.6379491686820984
aF0.5552164316177368
aF-0.5336248874664307
aF0.20097024738788605
aF0.20096994936466217
aF0.4426664113998413
aF-0.8846703767776489
aF-0.14630377292633057
aF1.1162832975387573
aF1.1162831783294678
aF0.36475470662117004
aF-0.9221429228782654
aF-0.1288657784461975
aF1.1080831289291382
aF1.108082890510559
aF0.2677984833717346
aF-0.9146299958229065
aF-0.30287936329841614
aF1.106442928314209
aF1.1064438819885254
aI6
aa(lp186
F0.1257859766483307
aF0.6425915360450745
aF-0.7558134198188782
aF0.358411967754364
aF0.358411967754364
aF0.4920918941497803
aF0.8367971181869507
aF-0.24003402888774872
aF0.18582633137702942
aF0.18582633137702942
aF-0.1922730952501297
aF-0.49519863724708557
aF-0.8472363352775574
aF1.36672043800354
aF1.3667198419570923
aF-0.22903086245059967
aF-0.4896518588066101
aF-0.8413001298904419
aF1.3544522523880005
aF1.3544526100158691
aF-0.365655779838562
aF-0.34335604310035706
aF-0.8651025295257568
aF1.3557238578796387
aF1.3557238578796387
aI6
aa(lp187
F0.6776651740074158
aF0.5912111401557922
aF-0.437309205532074
aF0.34871506690979004
aF0.34871453046798706
aF0.9081636071205139
aF0.41630813479423523
aF-0.043892212212085724
aF0.383429616689682
aF0.38342994451522827
aF-0.09636616706848145
aF-0.19597235321998596
aF-0.975862979888916
aF1.3552207946777344
aF1.3552210330963135
aF-0.10898697376251221
aF-0.17179031670093536
aF-0.9790863394737244
aF1.3729498386383057
aF1.3729499578475952
aF-0.1585332751274109
aF0.010067211464047432
aF-0.9873023629188538
aF1.3953166007995605
aF1.3953166007995605
aI6
aa(lp188
F0.7855820655822754
aF0.0620838962495327
aF-0.6156349778175354
aF0.45868387818336487
aF0.4586845636367798
aF0.9830777645111084
aF-0.14577963948249817
aF0.11093400418758392
aF0.24202299118041992
aF0.24202199280261993
aF0.5623846054077148
aF-0.2962174415588379
aF-0.7719966173171997
aF1.3010694980621338
aF1.3010694980621338
aF0.03991197794675827
aF-0.26870056986808777
aF-0.962396502494812
aF1.5207207202911377
aF1.5207207202911377
aF0.07718537747859955
aF-0.08372602611780167
aF-0.9934950470924377
aF1.5212305784225464
aF1.5212305784225464
aI6
aa(lp189
F0.7070122361183167
aF0.10145371407270432
aF-0.6998863220214844
aF0.41827917098999023
aF0.41827887296676636
aF0.9408093690872192
aF0.3236675262451172
aF0.10058313608169556
aF0.23414172232151031
aF0.23414145410060883
aF0.741359531879425
aF-0.16478440165519714
aF-0.6505629420280457
aF1.3601611852645874
aF1.3601610660552979
aF0.22668538987636566
aF-0.4329439401626587
aF-0.8724524974822998
aF1.4595725536346436
aF1.459572434425354
aF0.11730072647333145
aF-0.27541986107826233
aF-0.9541407227516174
aF1.4610633850097656
aF1.4610635042190552
aI6
aa(lp190
F-0.4958374798297882
aF-0.28232643008232117
aF-0.821241021156311
aF0.5709646940231323
aF0.5709643959999084
aF-0.0012063722824677825
aF-0.1040765643119812
aF-0.9945686459541321
aF0.1045917496085167
aF0.10459346324205399
aF-0.019528992474079132
aF-0.9176376461982727
aF-0.3969379961490631
aF1.1762160062789917
aF1.1762155294418335
aF-0.05224975571036339
aF-0.9879651069641113
aF-0.14558511972427368
aF0.9960110187530518
aF0.9960108399391174
aF-0.24851152300834656
aF-0.959112823009491
aF-0.13544169068336487
aF0.981510579586029
aF0.9815104603767395
aI6
aa(lp191
F-0.6202127933502197
aF-0.04145525023341179
aF-0.783337414264679
aF0.5689103603363037
aF0.5689108371734619
aF-0.2678026258945465
aF0.38349950313568115
aF-0.88386070728302
aF0.09411665797233582
aF0.09411665797233582
aF0.17722433805465698
aF-0.6859535574913025
aF-0.7057331800460815
aF0.9372190833091736
aF0.937218964099884
aF0.19251465797424316
aF-0.7912643551826477
aF-0.5803781747817993
aF0.914050281047821
aF0.914050281047821
aF-0.007583170663565397
aF-0.816186785697937
aF-0.5777384638786316
aF0.8925195336341858
aF0.8925185799598694
aI6
aa(lp192
F-0.8019087910652161
aF-0.09228850901126862
aF-0.5902754664421082
aF0.5687310099601746
aF0.5687313675880432
aF-0.6364667415618896
aF0.3528797924518585
aF-0.6858470439910889
aF0.10173892229795456
aF0.10173950344324112
aF0.09690511226654053
aF-0.6573098301887512
aF-0.7473641633987427
aF0.9470658302307129
aF0.9470654726028442
aF0.12548765540122986
aF-0.7354854941368103
aF-0.6658182740211487
aF0.9408670663833618
aF0.9408667087554932
aF-0.05851835757493973
aF-0.7959306240081787
aF-0.6025530099868774
aF0.9225679636001587
aF0.9225683212280273
aI6
aa(lp193
F-0.20014041662216187
aF0.06005820631980896
aF-0.9779248237609863
aF0.5971329212188721
aF0.5971329212188721
aF0.21857358515262604
aF0.7112394571304321
aF-0.6681047677993774
aF0.3784116208553314
aF0.3784101605415344
aF-0.1784781813621521
aF-0.7515753507614136
aF-0.6350433230400085
aF1.1301641464233398
aF1.130164384841919
aF-0.23318874835968018
aF-0.7776563167572021
aF-0.5838439464569092
aF1.174159049987793
aF1.1741588115692139
aF-0.40163150429725647
aF-0.6694710850715637
aF-0.6249005198478699
aF1.2077432870864868
aF1.2077431678771973
aI6
aa(lp194
F-0.46293872594833374
aF-0.5403174757957458
aF-0.7026697397232056
aF0.5376046895980835
aF0.5376044511795044
aF-0.622113049030304
aF-0.17482629418373108
aF-0.7631586194038391
aF0.12323524057865143
aF0.12323620915412903
aF0.2608863413333893
aF-0.8210508227348328
aF-0.507753849029541
aF1.0113143920898438
aF1.0113141536712646
aF0.30789926648139954
aF-0.8721902966499329
aF-0.38010814785957336
aF0.9854180812835693
aF0.9854180812835693
aF0.12952087819576263
aF-0.9424148797988892
aF-0.3083480894565582
aF0.9583482146263123
aF0.9583467841148376
aI6
aa(lp195
F0.4444236159324646
aF-0.09947312623262405
aF-0.8902767896652222
aF0.6914234161376953
aF0.6914234161376953
aF0.7633114457130432
aF-0.04340437427163124
aF-0.64457106590271
aF0.15327970683574677
aF0.15327854454517365
aF0.22758397459983826
aF-0.8425561785697937
aF-0.48816463351249695
aF1.0846383571624756
aF1.084638237953186
aF0.16938269138336182
aF-0.8557400107383728
aF-0.4888954162597656
aF1.1201293468475342
aF1.1201293468475342
aF0.06737635284662247
aF-0.7638511061668396
aF-0.6418659687042236
aF1.1074715852737427
aF1.10747230052948
aI6
aa(lp196
F-0.12952060997486115
aF-0.19748340547084808
aF-0.9717122316360474
aF0.5147350430488586
aF0.5147348046302795
aF-0.03836537525057793
aF0.15808932483196259
aF-0.986679196357727
aF0.13592538237571716
aF0.13592669367790222
aF0.238520085811615
aF-0.778621256351471
aF-0.5803939700126648
aF1.0584548711776733
aF1.0584545135498047
aF0.20594006776809692
aF-0.8645015358924866
aF-0.4585038423538208
aF1.0392719507217407
aF1.0392721891403198
aF-0.0006017924170009792
aF-0.876290500164032
aF-0.4817826449871063
aF1.0078816413879395
aF1.00788152217865
aI6
aa(lp197
F-0.8502485156059265
aF-0.11272407323122025
aF-0.5141699910163879
aF0.3515782058238983
aF0.3515782058238983
aF-0.8658547401428223
aF0.19823871552944183
aF-0.4593440890312195
aF0.059430789202451706
aF0.05943179130554199
aF-0.18783502280712128
aF-0.5777967572212219
aF-0.7942725419998169
aF0.943888247013092
aF0.9438878893852234
aF-0.09901699423789978
aF-0.6649126410484314
aF-0.7403287887573242
aF0.9393008351325989
aF0.9393013119697571
aF-0.20715969800949097
aF-0.7783279418945312
aF-0.5926976203918457
aF0.959767758846283
aF0.9597681164741516
aI6
aa(lp198
F-0.6220595240592957
aF0.4672600030899048
aF-0.628259539604187
aF0.583367109298706
aF0.5833669900894165
aF-0.14359772205352783
aF0.9071388840675354
aF-0.395574152469635
aF0.14437176287174225
aF0.14437218010425568
aF-0.3362664580345154
aF-0.36402738094329834
aF-0.8685671091079712
aF1.3872296810150146
aF1.387229561805725
aF-0.36310839653015137
aF-0.36664825677871704
aF-0.8565753102302551
aF1.3913466930389404
aF1.391347050666809
aF-0.5454102158546448
aF-0.2962346374988556
aF-0.7840744256973267
aF1.390211582183838
aF1.3902119398117065
aI6
aa(lp199
F-0.28854092955589294
aF-0.684317946434021
aF-0.6696664094924927
aF0.6198724508285522
aF0.6198723316192627
aF0.08615252375602722
aF-0.6316340565681458
aF-0.7704649567604065
aF0.09244135022163391
aF0.09243941307067871
aF-0.13258902728557587
aF-0.9882659316062927
aF0.07583244144916534
aF1.4859164953231812
aF1.4859161376953125
aF-0.20189833641052246
aF-0.9588882327079773
aF0.19942492246627808
aF1.5139294862747192
aF1.5139288902282715
aF-0.3864775598049164
aF-0.9150865077972412
aF0.11511657387018204
aF1.5192508697509766
aF1.5192503929138184
aI6
aa(lp200
F-0.7466568946838379
aF-0.6445436477661133
aF0.16452059149742126
aF0.10960246622562408
aF0.10960137844085693
aF-0.7320675849914551
aF-0.6562588810920715
aF0.18276019394397736
aF0.07996608316898346
aF0.07996533811092377
aF-0.7259049415588379
aF-0.3925168514251709
aF0.5647943615913391
aF1.1475999355316162
aF1.147599458694458
aF-0.6932204961776733
aF-0.3755421042442322
aF0.6151532530784607
aF1.2055752277374268
aF1.2055754661560059
aF-0.7381260395050049
aF-0.4812321662902832
aF0.47284841537475586
aF0.9545410871505737
aF0.9545414447784424
aI6
aa(lp201
F0.19781571626663208
aF0.11627430468797684
aF-0.9733186960220337
aF0.45952507853507996
aF0.45952534675598145
aF0.5192679166793823
aF0.3919582962989807
aF-0.7594271302223206
aF0.10540615022182465
aF0.10540671646595001
aF0.20073635876178741
aF-0.28753727674484253
aF-0.9364973306655884
aF0.971459150314331
aF0.9714592099189758
aF0.18142814934253693
aF-0.3581293821334839
aF-0.9158750772476196
aF0.973093569278717
aF0.9730934500694275
aF0.08722574263811111
aF-0.22152088582515717
aF-0.9712466597557068
aF0.9790984392166138
aF0.9790984392166138
aI6
aa(lp202
F0.05930190533399582
aF0.21640165150165558
aF-0.9745017886161804
aF0.1772877424955368
aF0.1772877424955368
aF0.19816121459007263
aF0.6724700331687927
aF-0.7131032943725586
aF0.19181567430496216
aF0.19181504845619202
aF0.18033602833747864
aF-0.11122725903987885
aF-0.977295994758606
aF1.0047895908355713
aF1.0047892332077026
aF0.16111516952514648
aF-0.11166798323392868
aF-0.9805978536605835
aF1.00626802444458
aF1.0062675476074219
aF0.03560812771320343
aF-0.16663062572479248
aF-0.985376238822937
aF1.0085108280181885
aF1.008510947227478
aI6
aa(lp203
F-0.15861710906028748
aF-0.23390625417232513
aF-0.9592333436012268
aF0.29589197039604187
aF0.2958921790122986
aF0.018313508480787277
aF0.14363975822925568
aF-0.9894605278968811
aF0.24826283752918243
aF0.24826307594776154
aF0.12440595775842667
aF-0.6227516531944275
aF-0.7724658250808716
aF1.505654215812683
aF1.5056548118591309
aF0.1595364511013031
aF-0.6219997406005859
aF-0.766592800617218
aF1.5177383422851562
aF1.5177395343780518
aF0.012917918153107166
aF-0.6469337940216064
aF-0.7624367475509644
aF1.5401384830474854
aF1.5401376485824585
aI6
aa(lp204
F-0.06546752899885178
aF-0.03131156042218208
aF-0.9973633289337158
aF0.37949851155281067
aF0.37949836254119873
aF0.25113770365715027
aF-0.15778163075447083
aF-0.9550051093101501
aF0.10145094990730286
aF0.10145094990730286
aF-0.7511236667633057
aF-0.408556193113327
aF-0.5185509324073792
aF1.0725927352905273
aF1.072593092918396
aF-0.7519503831863403
aF-0.38036343455314636
aF-0.5384183526039124
aF1.078965663909912
aF1.0789660215377808
aF-0.8074211478233337
aF-0.20276503264904022
aF-0.5540373921394348
aF1.0800950527191162
aF1.0800957679748535
aI6
aa(lp205
F0.23076677322387695
aF-0.12740080058574677
aF-0.9646324515342712
aF0.08596952259540558
aF0.08596812933683395
aF0.14030995965003967
aF-0.0013111840235069394
aF-0.9901067018508911
aF0.037550684064626694
aF0.03754909709095955
aF0.21775218844413757
aF-0.572760283946991
aF-0.7902719378471375
aF1.1793959140777588
aF1.1793956756591797
aF0.24101853370666504
aF-0.5566724538803101
aF-0.7950004935264587
aF1.1793313026428223
aF1.17933189868927
aF0.12409715354442596
aF-0.6581404805183411
aF-0.7425974607467651
aF1.1894397735595703
aF1.1894394159317017
aI6
aa(lp206
F0.28299573063850403
aF-0.30767810344696045
aF-0.9084314107894897
aF0.5028936266899109
aF0.50289386510849
aF0.1019049659371376
aF0.09695876389741898
aF-0.9900577664375305
aF0.016205672174692154
aF0.016205672174692154
aF0.9045662879943848
aF-0.05633644759654999
aF-0.4225943982601166
aF1.1338508129119873
aF1.1338508129119873
aF0.9435423016548157
aF-0.1234445571899414
aF-0.3073914051055908
aF1.13773775100708
aF1.1377378702163696
aF0.8849775791168213
aF-0.30037936568260193
aF-0.3557906448841095
aF1.126929521560669
aF1.1269294023513794
aI6
aa(lp207
F0.3095459043979645
aF0.13312216103076935
aF-0.9415199160575867
aF0.20464617013931274
aF0.20464588701725006
aF0.03782855346798897
aF0.2093089073896408
aF-0.9771175980567932
aF0.0682486966252327
aF0.06824781745672226
aF0.6313035488128662
aF0.7076421976089478
aF-0.317330002784729
aF1.172446608543396
aF1.1724462509155273
aF0.664726972579956
aF0.6907938122749329
aF-0.28450292348861694
aF1.1503989696502686
aF1.1503992080688477
aF0.7913416624069214
aF0.5391724109649658
aF-0.2882210314273834
aF1.148451328277588
aF1.1484521627426147
aI6
aa(lp208
F-0.8367801308631897
aF0.19423194229602814
aF-0.5119305849075317
aF0.008890234865248203
aF0.008876815438270569
aF-0.5049797892570496
aF0.03923831135034561
aF-0.8622388243675232
aF0.3828537166118622
aF0.3828541934490204
aF-0.2646273076534271
aF0.02353433519601822
aF-0.9640635251998901
aF0.3887363374233246
aF0.3887360095977783
aF-0.21941284835338593
aF0.04868675768375397
aF-0.9744165539741516
aF0.43513455986976624
aF0.43513455986976624
aF0.08633165806531906
aF0.19710472226142883
aF-0.9765738248825073
aF0.5694271922111511
aF0.5694277882575989
aI1
aa(lp209
F-0.7664822936058044
aF0.14750069379806519
aF-0.6250988245010376
aF0.13076381385326385
aF0.13076381385326385
aF-0.23271465301513672
aF0.07416082918643951
aF-0.9697133898735046
aF0.09225131571292877
aF0.09225066751241684
aF-0.036915332078933716
aF0.18301264941692352
aF-0.9824172854423523
aF0.08679098635911942
aF0.08679235726594925
aF0.21544162929058075
aF0.1398431956768036
aF-0.9664516448974609
aF0.03767748549580574
aF0.03768065199255943
aF0.6004858613014221
aF0.08485283702611923
aF-0.7951204776763916
aF0.03049042634665966
aF0.030488470569252968
aI1
aa(lp210
F-0.5708355903625488
aF0.5801581144332886
aF-0.581001877784729
aF0.024589834734797478
aF0.024594683200120926
aF-0.19746655225753784
aF0.18490909039974213
aF-0.9627126455307007
aF0.035141099244356155
aF0.03513770550489426
aF-0.00978241115808487
aF0.05044352635741234
aF-0.9986790418624878
aF0.0435015894472599
aF0.0435015894472599
aF0.1260501593351364
aF-0.20954643189907074
aF-0.9696399569511414
aF0.031741492450237274
aF0.0317433699965477
aF0.3519665598869324
aF-0.5444010496139526
aF-0.7614112496376038
aF0.06638162583112717
aF0.06637892872095108
aI1
aa(lp211
F0.3744960129261017
aF0.3012012541294098
aF-0.8769438862800598
aF0.08794337511062622
aF0.08794337511062622
aF-0.054943785071372986
aF0.23726744949817657
aF-0.9698892831802368
aF0.056234005838632584
aF0.056234005838632584
aF-0.21173690259456635
aF0.029716046527028084
aF-0.9768748879432678
aF0.0418231338262558
aF0.04182455688714981
aF-0.4243083596229553
aF-0.11035990715026855
aF-0.8987675309181213
aF0.025440560653805733
aF0.025445247069001198
aF-0.7571991682052612
aF-0.3279411494731903
aF-0.5648928284645081
aF0.03953828290104866
aF0.039535269141197205
aI1
aa(lp212
F0.7873454689979553
aF0.13677161931991577
aF-0.6011493802070618
aF0.12489888072013855
aF0.12489888072013855
aF0.17395298182964325
aF0.17397813498973846
aF-0.9692635536193848
aF0.11164118349552155
aF0.11164171993732452
aF-0.0433216318488121
aF0.15115857124328613
aF-0.9875598549842834
aF0.09545556455850601
aF0.09545493870973587
aF-0.2887949049472809
aF0.2627030611038208
aF-0.9206435680389404
aF0.10665028542280197
aF0.10665028542280197
aF-0.7211688756942749
aF0.31963175535202026
aF-0.6146144866943359
aF0.12046113610267639
aF0.12046113610267639
aI1
aa(lp213
F-0.7859966158866882
aF0.012287585064768791
aF-0.6181087493896484
aF0.35743996500968933
aF0.3574396073818207
aF-0.5294392704963684
aF0.23830246925354004
aF-0.8141903281211853
aF0.034623246639966965
aF0.034621525555849075
aF-0.37688133120536804
aF0.3151375651359558
aF-0.8710045218467712
aF0.05042969062924385
aF0.05042969062924385
aF-0.17153501510620117
aF0.2749994993209839
aF-0.9460185170173645
aF0.014451931230723858
aF0.014456055127084255
aF0.17113138735294342
aF0.286886066198349
aF-0.9425552487373352
aF0.02263852022588253
aF0.02263852022588253
aI1
aa(lp214
F-0.5829223394393921
aF-0.6625054478645325
aF-0.4704127609729767
aF0.5527628064155579
aF0.5527628064155579
aF-0.6743447184562683
aF-0.35441941022872925
aF-0.6478009223937988
aF0.09336206316947937
aF0.09336206316947937
aF-0.7081586718559265
aF-0.16701073944568634
aF-0.6860164999961853
aF0.051722101867198944
aF0.05172325670719147
aF-0.6601477265357971
aF0.05476447939872742
aF-0.749136745929718
aF0.039609093219041824
aF0.039609093219041824
aF-0.6504449248313904
aF0.4717635214328766
aF-0.5952818393707275
aF0.5153347253799438
aF0.5153358578681946
aI1
aa(lp215
F-0.5529641509056091
aF0.10821810364723206
aF-0.8261474370956421
aF0.4409377872943878
aF0.4409377872943878
aF-0.2535238265991211
aF0.1784006655216217
aF-0.9507359266281128
aF0.10913392901420593
aF0.10913338512182236
aF-0.06613236665725708
aF0.24380330741405487
aF-0.9675672650337219
aF0.09222736954689026
aF0.09222736954689026
aF0.17649446427822113
aF0.17209433019161224
aF-0.9691404700279236
aF0.04501316323876381
aF0.045015811920166016
aF0.5901172757148743
aF0.03043445572257042
aF-0.8067436218261719
aF0.03904666379094124
aF0.03904819115996361
aI1
aa(lp216
F0.4682323634624481
aF0.4949575364589691
aF-0.7319667935371399
aF0.3088974952697754
aF0.30889710783958435
aF0.724219024181366
aF0.2701723873615265
aF-0.6344395279884338
aF0.14117515087127686
aF0.14117556810379028
aF0.7857728004455566
aF0.05346185714006424
aF-0.6162005066871643
aF0.14347495138645172
aF0.143476203083992
aF0.7552324533462524
aF-0.16538122296333313
aF-0.6342499852180481
aF0.1355695128440857
aF0.13557039201259613
aF0.6709077954292297
aF-0.5562159419059753
aF-0.49041473865509033
aF0.16968880593776703
aF0.16968846321105957
aI1
aa(lp217
F-0.8493326306343079
aF-0.3898617923259735
aF-0.35586798191070557
aF0.19228066504001617
aF0.1922815889120102
aF-0.8426123261451721
aF0.002616459969431162
aF-0.5385141968727112
aF0.16534830629825592
aF0.16534939408302307
aF-0.7445522546768188
aF0.18605288863182068
aF-0.6411134004592896
aF0.13930317759513855
aF0.13930274546146393
aF-0.5922395586967468
aF0.3265775740146637
aF-0.7366134524345398
aF0.12645572423934937
aF0.12645620107650757
aF-0.22817304730415344
aF0.5164521932601929
aF-0.8253569006919861
aF0.10904031246900558
aF0.10904031246900558
aI1
aa(lp218
F-0.10130514949560165
aF-0.7376986742019653
aF-0.6674862504005432
aF0.22267089784145355
aF0.22267036139965057
aF0.2149447202682495
aF-0.4982510507106781
aF-0.8399670720100403
aF0.021242037415504456
aF0.021244842559099197
aF0.14556659758090973
aF-0.2893332540988922
aF-0.9460954666137695
aF0.032443661242723465
aF0.032443661242723465
aF0.13644592463970184
aF-0.05624811351299286
aF-0.9890494346618652
aF0.031038807705044746
aF0.031040728092193604
aF-0.026434140279889107
aF0.4200589954853058
aF-0.907111644744873
aF0.22112716734409332
aF0.22112607955932617
aI1
aa(lp219
F0.32001781463623047
aF-0.6386229991912842
aF-0.6998208165168762
aF0.2525632977485657
aF0.2525630593299866
aF0.41820958256721497
aF-0.19050706923007965
aF-0.8881486058235168
aF0.02175498940050602
aF0.02175772935152054
aF0.22135396301746368
aF-0.013495547696948051
aF-0.9751001596450806
aF0.03812422603368759
aF0.03812266141176224
aF0.22473765909671783
aF-0.0045293113216757774
aF-0.9744088053703308
aF0.05084538087248802
aF0.05084538087248802
aF-0.21247823536396027
aF0.35820096731185913
aF-0.909145176410675
aF0.09585870802402496
aF0.09585745632648468
aI1
aa(lp220
F0.6596968173980713
aF0.2754015326499939
aF-0.6992526054382324
aF0.0967877209186554
aF0.0967877209186554
aF0.25773972272872925
aF0.3142755329608917
aF-0.9136744737625122
aF0.09703781455755234
aF0.09703781455755234
aF0.029611751437187195
aF0.271694540977478
aF-0.9619278907775879
aF0.09603602439165115
aF0.09603726863861084
aF-0.17945177853107452
aF0.339252233505249
aF-0.923420250415802
aF0.1434895396232605
aF0.1434895396232605
aF-0.6024481654167175
aF0.35713860392570496
aF-0.7137984037399292
aF0.16273021697998047
aF0.16272948682308197
aI1
aa(lp221
F0.7093528509140015
aF-0.181239053606987
aF-0.6811542510986328
aF0.16611532866954803
aF0.16611570119857788
aF0.6059989333152771
aF0.028453204780817032
aF-0.7949564456939697
aF0.05998515710234642
aF0.05998416244983673
aF0.40730634331703186
aF0.12419965863227844
aF-0.9048072099685669
aF0.034205760806798935
aF0.034207504242658615
aF0.2219020426273346
aF0.2500104308128357
aF-0.9424724578857422
aF0.058073610067367554
aF0.05807463452219963
aF-0.11783672124147415
aF0.44579803943634033
aF-0.8873435258865356
aF0.09084432572126389
aF0.09084498137235641
aI1
aa(lp222
F0.4958687126636505
aF0.6179433465003967
aF-0.6101313233375549
aF0.05579857900738716
aF0.05579857900738716
aF0.14172491431236267
aF0.7269856929779053
aF-0.6718674302101135
aF0.28346383571624756
aF0.2834640443325043
aF-0.0664924681186676
aF0.7109354734420776
aF-0.7001068592071533
aF0.299552857875824
aF0.299552857875824
aF-0.2974942624568939
aF0.8070885539054871
aF-0.5100051164627075
aF0.14182516932487488
aF0.1418255865573883
aF-0.6558409929275513
aF0.6966947317123413
aF-0.29066991806030273
aF0.16086354851722717
aF0.16086280345916748
aI1
aa(lp223
F-0.3686155378818512
aF-0.3487018346786499
aF-0.861701488494873
aF0.056960009038448334
aF0.056960009038448334
aF-0.1472686529159546
aF-0.8136216402053833
aF-0.5624338388442993
aF0.025791950523853302
aF0.025791950523853302
aF0.07724451273679733
aF-0.8638027310371399
aF-0.49787360429763794
aF0.018651079386472702
aF0.018651079386472702
aF0.32375240325927734
aF-0.8645240068435669
aF-0.3844250738620758
aF0.029914071783423424
aF0.0299160648137331
aF0.5900624990463257
aF-0.8033106327056885
aF-0.08073575049638748
aF0.048282843083143234
aF0.048287782818078995
aI1
aa(lp224
F0.2386932671070099
aF0.464378297328949
aF-0.852864682674408
aF0.18171489238739014
aF0.18171489238739014
aF0.020809365436434746
aF0.5093542337417603
aF-0.8603053689002991
aF0.08497598022222519
aF0.0849766805768013
aF-0.18205690383911133
aF0.27960699796676636
aF-0.9426957368850708
aF0.05187176540493965
aF0.051872916519641876
aF-0.36386826634407043
aF0.1672704666852951
aF-0.9163081049919128
aF0.0521698035299778
aF0.052170947194099426
aF-0.7269085049629211
aF-0.06143597513437271
aF-0.6839805245399475
aF0.06796140968799591
aF0.06795965135097504
aI1
aa(lp225
F-0.1514499932527542
aF0.5608754754066467
aF-0.8139297962188721
aF0.2406390905380249
aF0.2406398355960846
aF0.1025715321302414
aF-0.2889322340488434
aF-0.9518388509750366
aF1.5555294752120972
aF1.5555294752120972
aF-0.0058907088823616505
aF-0.46007040143013
aF-0.8878629207611084
aF1.5152690410614014
aF1.5152692794799805
aF0.17582859098911285
aF-0.26516562700271606
aF-0.9480355978012085
aF1.2693818807601929
aF1.2693816423416138
aF0.4879532754421234
aF0.5690368413925171
aF-0.6618903875350952
aF1.4135903120040894
aF1.413590669631958
aI1
aa(lp226
F-0.6100723743438721
aF0.09149151295423508
aF-0.7870457172393799
aF0.25243350863456726
aF0.25243350863456726
aF-0.3003879189491272
aF0.3322792053222656
aF-0.8940680027008057
aF1.4256421327590942
aF1.4256422519683838
aF-0.2081117331981659
aF-0.36088547110557556
aF-0.9090936779975891
aF1.5279347896575928
aF1.5279347896575928
aF-0.17933951318264008
aF-0.38776645064353943
aF-0.9041429758071899
aF1.5304160118103027
aF1.5304163694381714
aF-0.3115869462490082
aF-0.4165937304496765
aF-0.8540276885032654
aF1.5312896966934204
aF1.5312902927398682
aI1
aa(lp227
F-0.9995970726013184
aF-0.01797286421060562
aF-0.021971845999360085
aF0.2430722564458847
aF0.2430722564458847
aF-0.7620533108711243
aF-0.11944976449012756
aF-0.6364012956619263
aF1.3746111392974854
aF1.3746106624603271
aF-0.8960152864456177
aF-0.4042653441429138
aF-0.18364651501178741
aF1.2545678615570068
aF1.2545677423477173
aF-0.8469040393829346
aF-0.5122918486595154
aF-0.14251554012298584
aF1.1244081258773804
aF1.1244087219238281
aF-0.6704174876213074
aF-0.5295409560203552
aF-0.5197370052337646
aF0.34383052587509155
aF0.3438321053981781
aI1
aa.