(lp0
(lp1
F0.6266291787776129
aF0.5184483136748796
aF0.11815645749405224
aF0.11815666619427688
aF0.29981267143752527
aF0.5703820400414157
aF0.07625031090331828
aF0.07624935752274664
aF0.139395793978227
aF0.702456369264016
aF0.0707435515191732
aF0.0707435515191732
aF0.24049894820292833
aF0.8987420041223839
aF0.04612018358115487
aF0.04612018358115487
aF0.24384101668205865
aF0.9240885325683381
aF0.03157550918702428
aF0.03157321348455325
aI1
aa(lp2
F0.6318718422570377
aF0.5364320653928991
aF0.1094073646222198
aF0.10940780099541676
aF0.28841559011546963
aF0.5568521278009112
aF0.1519740806262455
aF0.15197343555282392
aF0.09011102722943673
aF0.6936048994456241
aF0.129516456580739
aF0.1295172060042729
aF0.21918094122043844
aF0.9409868000299035
aF0.10757828739435961
aF0.10757896092690276
aF0.2509252699164482
aF0.9726989130003281
aF0.08313325854148246
aF0.08313296446389319
aI1
aa(lp3
F0.6734067158913254
aF0.5504760513469659
aF0.18173611767038833
aF0.1817362504796222
aF0.2682834557548755
aF0.5282747918114941
aF0.15407314005379816
aF0.15407345310413512
aF0.03631261534500817
aF0.6759382357024323
aF0.12473549491645931
aF0.12473607358526399
aF0.2112312271272175
aF0.9788797029622541
aF0.10269825004161937
aF0.10269753856358083
aF0.2577256718725806
aF0.0014897641806983519
aF0.08747695528964745
aF0.08747723039448903
aI1
aa(lp4
F0.6898270977839622
aF0.5603335273959229
aF0.17178836454471405
aF0.1717882317354802
aF0.25117747465155094
aF0.5060096391765676
aF0.19461174522027475
aF0.19461185905676093
aF0.009992420902730753
aF0.2927161099488621
aF0.1317253018128257
aF0.13172511208534876
aF0.22355324887212671
aF0.02909890662570545
aF0.12351807061514762
aF0.12351767218744604
aF0.293178812260655
aF0.045544256654308266
aF0.10217150016100367
aF0.10217268595773457
aI1
aa(lp5
F0.6805255184992666
aF0.5702612453000319
aF0.19238180229275176
aF0.19238193510198562
aF0.2513943141849511
aF0.48652929696186314
aF0.23352653931619777
aF0.23352633061597314
aF0.023704055306449624
aF0.34623561295580796
aF0.1747691160167507
aF0.17476883142553526
aF0.2182472164154023
aF0.014130547059622507
aF0.15247730429972006
aF0.15247634617596148
aF0.24823865295191908
aF0.008777613970597346
aF0.15724276522913333
aF0.15724276522913333
aI1
aa(lp6
F0.6731090714254944
aF0.5723682590520554
aF0.19972199789353984
aF0.1997221307027737
aF0.2619872545687239
aF0.5142489295746625
aF0.17171192334425298
aF0.17171135416182215
aF0.04254523411044866
aF0.60317463676348
aF0.14884925959459083
aF0.14884909832623544
aF0.20269497053902175
aF0.9759489067348971
aF0.140085785380006
aF0.14008595613473523
aF0.2225710297239835
aF0.9768397910756391
aF0.15425083880870463
aF0.15425021270803072
aI1
aa(lp7
F0.671943234025164
aF0.5661338378755839
aF0.2196913840244107
aF0.21969195320684154
aF0.2658301656414931
aF0.5271024206711764
aF0.13097848703170176
aF0.1309781170631217
aF0.07738380925520344
aF0.6547496797774618
aF0.11021188501545652
aF0.11021143915588569
aF0.2004115244630003
aF0.9439872641867948
aF0.11154346833964589
aF0.11154390471284287
aF0.21553016716357123
aF0.9666929758811543
aF0.13680564394935044
aF0.1368052929535181
aI1
aa(lp8
F0.6644748016227089
aF0.5583414695221802
aF0.20441965022269304
aF0.20441892925828065
aF0.2745078830364989
aF0.5340874748942454
aF0.08775160478527275
aF0.08775160478527275
aF0.10099692581035996
aF0.662969508879609
aF0.08198628005236037
aF0.08198628005236037
aF0.202386815170968
aF0.9219172154311911
aF0.08744758547621641
aF0.08744758547621641
aF0.21823816641475202
aF0.9514262129393326
aF0.10050753326995471
aF0.10050704946488849
aI1
aa(lp9
F0.6595330838672139
aF0.5413873462914023
aF0.17178083236387934
aF0.1717805477726639
aF0.2855239156938586
aF0.5356847383475875
aF0.08848069902005007
aF0.0884804239152085
aF0.11437766482211653
aF0.6596094542356643
aF0.08482952653548129
aF0.08483038030912754
aF0.2051521690384292
aF0.9139368982959389
aF0.10645290937848768
aF0.10645336472443236
aF0.22346639163318138
aF0.9392722707662488
aF0.12478479560134341
aF0.12478440666001568
aI1
aa(lp10
F0.6600612092720375
aF0.53993689395972
aF0.14209153683439715
aF0.14209119532493866
aF0.28919980966867326
aF0.5390537101829486
aF0.09524734845803401
aF0.09524760459012788
aF0.11537826856277571
aF0.656307873600114
aF0.0813068754437949
aF0.08130597423827941
aF0.19826988070324741
aF0.9183214623426378
aF0.10077194696819883
aF0.10077243077326503
aF0.21209864217906144
aF0.9607298033352839
aF0.12994901625542543
aF0.12994901625542543
aI1
aa(lp11
F0.6591753337366868
aF0.5329046711142892
aF0.1587043118750299
aF0.15870447314338532
aF0.29683254606616255
aF0.5437954243470288
aF0.090405674001132
aF0.09040593961959972
aF0.11021554675576155
aF0.6503217724886549
aF0.08945510139614317
aF0.08945510139614317
aF0.19106192515388987
aF0.9279865974186552
aF0.09153622209075066
aF0.09153596595865679
aF0.20777099637544597
aF0.9672032669031451
aF0.0832616660978787
aF0.08326225425305724
aI1
aa(lp12
F0.6663509786967207
aF0.531223171032777
aF0.17823399509170737
aF0.17823399509170737
aF0.3238778943406805
aF0.5533682664918862
aF0.18177209000001707
aF0.18177155876308163
aF0.13084302161316316
aF0.6646425257713082
aF0.1914960026483919
aF0.19149626826685962
aF0.20743766417120166
aF0.9063226793001995
aF0.1644528931581019
aF0.1644531777493173
aF0.23824735737028593
aF0.938817873458966
aF0.08128541726615245
aF0.08128481962460006
aI1
aa(lp13
F0.6608641359544678
aF0.49403804348867714
aF0.15186796604839028
aF0.15186796604839028
aF0.3231993909376305
aF0.5365654770114998
aF0.3422595650534865
aF0.34225873025258796
aF0.11160835513676101
aF0.6415341080207595
aF0.3485379128840576
aF0.34853833028450687
aF0.19893045485972613
aF0.9132837424838087
aF0.33199121043727087
aF0.33199105865528933
aF0.25944302807564185
aF0.903215853919733
aF0.0632531391885141
aF0.06325237553541939
aI1
aa(lp14
F0.655275143938628
aF0.4981857765066649
aF0.1010222354557844
aF0.10102270977447676
aF0.31660378082011226
aF0.5257836558096481
aF0.23930594182789944
aF0.23930594182789944
aF0.09460831785656239
aF0.6490506458249939
aF0.24797413490356263
aF0.2479745333312642
aF0.1990635107393075
aF0.9263879916434137
aF0.22495237517810843
aF0.22495260285108076
aF0.21850824347818296
aF0.9647776390559012
aF0.19940329367776796
aF0.19940304703204792
aI1
aa(lp15
F0.6475769895070882
aF0.5076236751317701
aF0.07959955582426405
aF0.07959955582426405
aF0.31032190405847
aF0.5225912277631776
aF0.11047722837833766
aF0.11047789242450697
aF0.06930756590760803
aF0.6355072439608787
aF0.10505792861787722
aF0.10505839345019573
aF0.19688154989070386
aF0.953063636956357
aF0.10521396049491662
aF0.10521396049491662
aF0.21654228736208095
aF0.9807715135803662
aF0.09222272250695387
aF0.09222324425751548
aI1
aa(lp16
F0.6450778991807713
aF0.506834797176109
aF0.06317390425095502
aF0.06317467264723665
aF0.3043511803590172
aF0.4935417098871075
aF0.12199974802177532
aF0.12199954880792453
aF0.036310281697041744
aF0.46316878831269787
aF0.12325367588965119
aF0.12325387510350198
aF0.20251203530575157
aF0.017443416480051023
aF0.13225489760559558
aF0.13225508733307254
aF0.23174112786715642
aF0.039737419549440364
aF0.13057481336538015
aF0.13057481336538015
aI1
aa(lp17
F0.6527882720618263
aF0.4924238225491847
aF0.07117169054364685
aF0.07117169054364685
aF0.29213159247891046
aF0.48101387058941186
aF0.1330001376486609
aF0.13299940719787468
aF0.03964384089883109
aF0.38896831204303883
aF0.11444843317101694
aF0.11444843317101694
aF0.20420351268095752
aF0.026119312491278166
aF0.11485770379790841
aF0.11485813068473154
aF0.2349778027328439
aF0.048474293971757565
aF0.1100591259373944
aF0.1100591259373944
aI1
aa(lp18
F0.6412238511051054
aF0.486684370715144
aF0.054811148697238354
aF0.054810707580854455
aF0.28295113521549636
aF0.48245910185808794
aF0.19601756890619262
aF0.19601756890619262
aF0.028057975994028483
aF0.4564314185675934
aF0.15588710548811968
aF0.15588725727010122
aF0.20118333583921175
aF0.007829697550285744
aF0.14088357044781116
aF0.14088375068891426
aF0.21816016944898003
aF0.034459314977322235
aF0.13029841837696698
aF0.13029785868090998
aI1
aa(lp19
F0.6572524078123558
aF0.4863432928866534
aF0.1076015195239115
aF0.1076015195239115
aF0.2982093035026125
aF0.5683045146824963
aF0.11936803818907403
aF0.11936844610314945
aF0.11788569741170431
aF0.7151842939731009
aF0.11348735915017921
aF0.11348735915017921
aF0.235695238214163
aF0.9333539877414235
aF0.0947404345851329
aF0.09473941005675739
aF0.24900792197993946
aF0.9827405432815947
aF0.10971801490659536
aF0.10971867895276466
aI1
aa(lp20
F0.6642801412313636
aF0.4893339801494983
aF0.15350847313691504
aF0.15350847313691504
aF0.3286482502389989
aF0.6220371433074812
aF0.04056527610654813
aF0.04056527610654813
aF0.19350861275107462
aF0.7458223027782978
aF0.037142352891524316
aF0.03714105088671378
aF0.2736372615902946
aF0.9048763108524586
aF0.02955870610710107
aF0.029557887907356747
aF0.28545329912693973
aF0.9994672212130112
aF0.12086252152496821
aF0.12086171518319119
aI1
aa(lp21
F0.664104681260685
aF0.4921797494151642
aF0.18430037938503577
aF0.1842999809573342
aF0.3073465029012832
aF0.5992026825472668
aF0.07829825300539506
aF0.07829887436288205
aF0.1731279733411782
aF0.7382406030721067
aF0.08270583099504737
aF0.08270554640383196
aF0.27164956270533475
aF0.897448518075565
aF0.028075272025145464
aF0.028074411136718828
aF0.258310563738506
aF0.9887328200224283
aF0.17444589628702753
aF0.1744460480690091
aI1
aa(lp22
F0.651875986461685
aF0.5091627598401037
aF0.1681964629239428
aF0.16819661470592437
aF0.28036623115135734
aF0.5457966033692255
aF0.13382385846256445
aF0.13382403870366755
aF0.08113284791556728
aF0.7096898811045179
aF0.12858992244707906
aF0.1285897327196021
aF0.23631714591084033
aF0.9291338794717403
aF0.046958698395073176
aF0.04695921065926093
aF0.2557254320013947
aF0.9507081703300873
aF0.04471048945470732
aF0.04470994873139803
aI1
aa(lp23
F0.6350177894432503
aF0.5178515828143928
aF0.11706348493124248
aF0.1170641110319164
aF0.2799756202218234
aF0.5141334495742266
aF0.15773137040050927
aF0.15773121861852774
aF0.0408618913008167
aF0.6291916905720787
aF0.143319756629147
aF0.14332043016169016
aF0.21602321195790766
aF0.9681001466321585
aF0.12616736818496171
aF0.1261669887300078
aF0.24006272678793686
aF0.9723292100387534
aF0.12661544756726223
aF0.1266150586259345
aI1
aa(lp24
F0.6403230250445715
aF0.5103334702720999
aF0.0925886878372327
aF0.09258920958779429
aF0.2851667916640054
aF0.5298613925806319
aF0.1281059561125144
aF0.1281059561125144
aF0.07405506438814156
aF0.6685035178726303
aF0.09438634619491082
aF0.09438583393072307
aF0.22661992791847166
aF0.923344952640696
aF0.0327307574225477
aF0.03272927991982099
aF0.2329799344551198
aF0.9352620769770573
aF0.027284333747664525
aF0.0272861053279805
aI1
aa(lp25
F0.6386512982997155
aF0.49904505291675855
aF0.09373653907274873
aF0.09373628294065485
aF0.2926216206063635
aF0.5446008080002855
aF0.05549266402398484
aF0.05549310039718181
aF0.10121039768104441
aF0.6847015201895401
aF0.05400744887533941
aF0.054008345337667976
aF0.21398506453682817
aF0.9214075315371265
aF0.043545178548125445
aF0.04354573350099551
aF0.22246151902429095
aF0.9549661102586733
aF0.02646065799403676
aF0.026461571057519558
aI1
aa(lp26
F0.6339180530958874
aF0.48993014301335097
aF0.07027252459853621
aF0.07027252459853621
aF0.29347907496566783
aF0.5084165527798044
aF0.06193499805606626
aF0.06193539174058092
aF0.06330263434406207
aF0.5848075750663988
aF0.04978841730908792
aF0.04978841730908792
aF0.17099708712936806
aF0.9613063092467283
aF0.0497578095238698
aF0.04975683717055046
aF0.19325870371844292
aF0.990123446537443
aF0.03981889769862113
aF0.039818290570694914
aI1
aa(lp27
F0.6754235189712486
aF0.5013107883033687
aF0.02722226914676896
aF0.02722226914676896
aF0.3148079153870913
aF0.5149461887246052
aF0.07515158485477019
aF0.07515254772171569
aF0.07875009847811294
aF0.5793962154008484
aF0.04861131483981392
aF0.04861032351374689
aF0.17526751112593697
aF0.965977172056137
aF0.03934008483664901
aF0.03934131332206223
aF0.24959454036590506
aF0.011614798660829866
aF0.012037321436192757
aF0.012033307514258643
aI1
aa(lp28
F0.6672940001481271
aF0.5096587886919135
aF0.04460600653315382
aF0.044604925086535234
aF0.32834942946281087
aF0.5165581038823543
aF0.0802945370586867
aF0.0802936358531712
aF0.09525813446509832
aF0.5847777878525184
aF0.059244529623755156
aF0.059244529623755156
aF0.18791432733862798
aF0.9569272093513654
aF0.037848229226310516
aF0.037848229226310516
aF0.30049364129777556
aF0.00015541083534558313
aF0.022250228197271252
aF0.02225348439509432
aI1
aa(lp29
F0.6693154325784877
aF0.5043879643188248
aF0.011387600877192025
aF0.011385478301043705
aF0.32522864014004127
aF0.5218528866854927
aF0.0856009110248696
aF0.08560176479851585
aF0.10117422613756488
aF0.603485571639071
aF0.04819167560630742
aF0.04819317919656221
aF0.19459324679127263
aF0.9452959284317692
aF0.03790821156814661
aF0.03790884952678784
aF0.29667890475533265
aF0.9914527151864136
aF0.021309495333555473
aF0.02130836171188073
aI1
aa(lp30
F0.6777726486997883
aF0.5111015250442678
aF0.05402446268683444
aF0.05402446268683444
aF0.3119960782877786
aF0.5209796019398307
aF0.07545223175792384
aF0.07545190922121303
aF0.08661941555297852
aF0.6057863208609898
aF0.05522877207630232
aF0.0552270218403275
aF0.18417781543492942
aF0.9504333690524804
aF0.049664899978409935
aF0.049665388526663065
aF0.23280991966302958
aF0.9858326837553456
aF0.020056044155965427
aF0.020057246553850567
aI1
aa(lp31
F0.6716904411348827
aF0.5131281429637327
aF0.06863420411918325
aF0.06863420411918325
aF0.29846055960033047
aF0.5176325139831386
aF0.07930661659986128
aF0.07930692016382439
aF0.08136931475645744
aF0.5984930353788763
aF0.054827474746629454
aF0.05482659251386166
aF0.16777936603862736
aF0.9368162865226938
aF0.03203219271040426
aF0.032033701043845966
aF0.1849652983007365
aF0.970555106347338
aF0.03457429188415107
aF0.03457429188415107
aI1
aa(lp32
F0.6640227948816356
aF0.515725440975303
aF0.08937839457721439
aF0.08937758823543737
aF0.29940707203731265
aF0.5164899110839535
aF0.09157858823635244
aF0.09157885385482016
aF0.08524212687959314
aF0.5905778232273379
aF0.07237345284173674
aF0.07237412163109297
aF0.16065168418476516
aF0.9421068751627949
aF0.049667821781554884
aF0.049668310329808014
aF0.19077890867653133
aF0.9819283958437848
aF0.036164423955953505
aF0.03616509037371628
aI1
aa(lp33
F0.6445718580542641
aF0.5428246505089321
aF0.08851656699956649
aF0.08851656699956649
aF0.29138059420691986
aF0.4994289327082057
aF0.09666502062488709
aF0.09666376842353924
aF0.07226683074288068
aF0.5440120267210827
aF0.08257950095452368
aF0.08258007962332836
aF0.16333841498578044
aF0.9566402275697388
aF0.04609029201716222
aF0.04609134026147234
aF0.1840760645890439
aF0.9730632277015575
aF0.042867016654533956
aF0.04286645221529005
aI1
aa(lp34
F0.6719090071883231
aF0.5500633419095547
aF0.0405908940591226
aF0.0405908940591226
aF0.2826216924245294
aF0.467325987694213
aF0.33392324328049516
aF0.3339237745174306
aF0.07636818858474409
aF0.3736732512480308
aF0.30726761421636956
aF0.30726818339880035
aF0.18378477599369059
aF0.9787330056770804
aF0.04283373371189091
aF0.042833169272647006
aF0.22592949065712184
aF0.9964276731958693
aF0.040381918729641746
aF0.040382516371194124
aI1
aa(lp35
F0.7026277070894648
aF0.5265258246391804
aF0.022686826695623163
aF0.02269002123201622
aF0.26573441018387906
aF0.4609902069847773
aF0.3399157476943012
aF0.339916506604209
aF0.08313938673898778
aF0.36721784024960097
aF0.30763147357165427
aF0.30763122692593425
aF0.18286158106362488
aF0.9821160742639785
aF0.06259366070821475
aF0.06259366070821475
aF0.2439742433163693
aF0.9951976699628362
aF0.07238682862886134
aF0.07238850297384539
aI1
aa(lp36
F0.6817513856733023
aF0.5383934419620264
aF0.10685365175529049
aF0.10685365175529049
aF0.27733364613261935
aF0.4778555306415647
aF0.23420494785550927
aF0.2342037905178999
aF0.07160826769765759
aF0.3787054690100285
aF0.16958566648288032
aF0.16958566648288032
aF0.18445707530824446
aF0.04226071910181541
aF0.1571250772751845
aF0.157124299392529
aF0.254971891381213
aF0.051601723756220234
aF0.1371374773065269
aF0.1371372970654238
aI1
aa(lp37
F0.6600723652476819
aF0.5436066739665901
aF0.13144906809276793
aF0.13144906809276793
aF0.28502667792228165
aF0.4649756863985032
aF0.17736625750315266
aF0.17736654209436806
aF0.09081178566553234
aF0.35359182155565017
aF0.11372720314015898
aF0.11372634936651273
aF0.18551235850775913
aF0.06581557509198911
aF0.10918680643027145
aF0.10918680643027145
aF0.2409076781065105
aF0.06295076608111343
aF0.11363171330101267
aF0.11363085952736642
aI1
aa(lp38
F0.7079809816879483
aF0.5721662182618569
aF0.08931763435272282
aF0.08931709362941352
aF0.27959561505825065
aF0.514661848898095
aF0.26257026813262757
aF0.2625700784051506
aF0.0521181806054185
aF0.460678484740157
aF0.16186368228023623
aF0.16186322693429156
aF0.18550619236475843
aF0.024481243400832162
aF0.1375655309536359
aF0.13756570170836516
aF0.25075020837347123
aF0.05294897857000525
aF0.15552762883755236
aF0.15552637663620453
aI1
aa(lp39
F0.6248619052753676
aF0.5416886619839121
aF0.06014703951564695
aF0.06014664108794536
aF0.2762944328504019
aF0.5011513527450377
aF0.153146558488269
aF0.15314719407531674
aF0.05330767227893699
aF0.47113219124338035
aF0.10818554812981683
aF0.10818599398938765
aF0.1798437568425932
aF0.01831635260147404
aF0.09866890326363036
aF0.09866890326363036
aF0.24772101947657058
aF0.05113233797825881
aF0.112538237960389
aF0.11253866484721213
aI1
aa(lp40
F0.6289219594455
aF0.5247244950548233
aF0.14658797368787657
aF0.14658813495623196
aF0.2726292584780346
aF0.50266897349497
aF0.028799269705573356
aF0.028797590617402394
aF0.04134237139299248
aF0.49071652723848685
aF0.045487285920375486
aF0.045487285920375486
aF0.19653782062072297
aF0.008991360946123357
aF0.023989253649793044
aF0.023989253649793044
aF0.2676422338010452
aF0.06555534488461162
aF0.12598375941914838
aF0.12598356969167143
aI1
aa(lp41
F0.612247911916188
aF0.5007867786507735
aF0.07330442659835718
aF0.07330442659835718
aF0.26390020082776755
aF0.49849610440255426
aF0.03575171451854241
aF0.035754418135088874
aF0.04318216348011311
aF0.55567187585552
aF0.026390247755749087
aF0.026390247755749087
aF0.19801031454203924
aF0.97600821554419
aF0.010019878026034858
aF0.010015054204933538
aF0.24450857280968893
aF0.997293930910104
aF0.022322865361819568
aF0.022322865361819568
aI1
aa(lp42
F0.6813830108040663
aF0.55862844656062
aF0.15084714684506265
aF0.15084682430835183
aF0.2719070987825396
aF0.517762881661531
aF0.03872202149297325
aF0.03872389268021462
aF0.07499058686102175
aF0.6328621678274267
aF0.03506089543064524
aF0.035062273326446555
aF0.20699292399249533
aF0.9498978063305606
aF0.02622030885464963
aF0.026221229032912814
aF0.22890382934043774
aF0.9681640089008982
aF0.03355619764171105
aF0.03355619764171105
aI1
aa(lp43
F0.6962754793793713
aF0.5628412692951885
aF0.13689121104145255
aF0.13689139128255565
aF0.2825048013259837
aF0.5175142272018406
aF0.04529019701732523
aF0.04528912980026742
aF0.0777095191580615
aF0.6198612916836351
aF0.03865079305494125
aF0.03865079305494125
aF0.20058559942309717
aF0.9595582741106452
aF0.023581899270418715
aF0.023580874742043213
aF0.22944244667473634
aF0.9791496092709558
aF0.029526803431852804
aF0.02952598523210848
aI1
aa(lp44
F0.7008124704810477
aF0.5861092857993432
aF0.07813229363812452
aF0.07813167228063753
aF0.30083649782136246
aF0.5239839460236255
aF0.029947749413356765
aF0.029947749413356765
aF0.08093583490350781
aF0.5945729147093645
aF0.04080590746555721
aF0.04080531456719176
aF0.18593846744822945
aF0.9630315011945875
aF0.021673743630167944
aF0.021675975299615506
aF0.21414769893006524
aF0.990412022029876
aF0.020260994891341585
aF0.020260994891341585
aI1
aa(lp45
F0.6646274184051634
aF0.5731124745667452
aF0.15423376333577962
aF0.15423376333577962
aF0.3161584524862274
aF0.5421099186441596
aF0.012498129160602821
aF0.012498129160602821
aF0.08693480902427769
aF0.5890657047224617
aF0.03987955831618731
aF0.03987895118826109
aF0.1696015087272052
aF0.9707632373895465
aF0.029497326896715966
aF0.0294997838675424
aF0.18699361783851026
aF0.039930296502502446
aF0.07772114470921129
aF0.0777205233517243
aI1
aa(lp46
F0.631905424020457
aF0.548409985527654
aF0.1303678491471549
aF0.1303678491471549
aF0.3074353712514841
aF0.5223239823823401
aF0.03372574285829584
aF0.033726459079521307
aF0.08473068800636689
aF0.5609031177408328
aF0.0378022203131514
aF0.0378022203131514
aF0.1572810712067285
aF0.9721688903207351
aF0.037509518248094814
aF0.03750822810125159
aF0.1564604334643253
aF0.00579627434338217
aF0.032152679144638055
aF0.03215192734951066
aI1
aa(lp47
F0.605720413962893
aF0.5148460043162012
aF0.07670909091531851
aF0.07670909091531851
aF0.29367151554553295
aF0.4992793244773383
aF0.04077686967521081
aF0.04077686967521081
aF0.07950611978505566
aF0.5216061555880999
aF0.03414663429315019
aF0.03414663429315019
aF0.15199356563812774
aF0.9787672325139213
aF0.014967997898080019
aF0.014971225636781542
aF0.15814346796680723
aF0.003126467233310352
aF0.02346377257167942
aF0.02346171402855457
aI1
aa(lp48
F0.5910240097622627
aF0.4964049388238393
aF0.12497928523795952
aF0.12497928523795952
aF0.2894364188051711
aF0.47891126444383714
aF0.037089603909746735
aF0.03708829953334274
aF0.09266685555773395
aF0.4821338461153778
aF0.036800435518948245
aF0.03679912165617041
aF0.13500634444899676
aF0.983073628840119
aF0.0423427237447447
aF0.0423427237447447
aF0.13053318715693846
aF0.989050613546311
aF0.04704614853238396
aF0.047045119260821534
aI1
aa(lp49
F0.6155996754693902
aF0.4850188492445808
aF0.07447062448089377
aF0.07447095176079149
aF0.3177869403390877
aF0.469145486056081
aF0.09183842001602834
aF0.09183867614812222
aF0.10186505234024243
aF0.5210142888658033
aF0.048799477065073926
aF0.04879897903044695
aF0.13905730118660978
aF0.9629797814843722
aF0.05497857845245521
aF0.05497857845245521
aF0.15164359433415536
aF0.9839970704159047
aF0.05129085022626609
aF0.051290375907573724
aI1
aa(lp50
F0.6357626215722402
aF0.48570805802051736
aF0.014707484285283845
aF0.014707484285283845
aF0.3253728709680147
aF0.45952483970181374
aF0.0981128025423313
aF0.09811378912521142
aF0.09286738801449076
aF0.4486421285425032
aF0.08118165530901134
aF0.08118254702815297
aF0.1555771571954088
aF0.03313129852969942
aF0.10512627794144658
aF0.10512650561441891
aF0.16664530799068522
aF0.04533073735175459
aF0.12448556691107993
aF0.12448654400758619
aI1
aa(lp51
F0.6646898766905736
aF0.4936115384920987
aF0.06895577321985699
aF0.06895577321985699
aF0.3241352406904084
aF0.457149878577288
aF0.1207778366656339
aF0.1207778366656339
aF0.08586414841275666
aF0.39344739831875164
aF0.12366048005934238
aF0.1236600816316408
aF0.19815860553801928
aF0.0681042955918696
aF0.17463818508491108
aF0.17463805227567722
aF0.22695527123397158
aF0.07066884189773244
aF0.18962473951603304
aF0.18962422725184527
aI1
aa(lp52
F0.6742171557818428
aF0.5057908039472694
aF0.1313714885274452
aF0.13137185849602526
aF0.31281828128186656
aF0.46361959977066636
aF0.15827448427601146
aF0.15827448427601146
aF0.07413624403233933
aF0.37418538262654794
aF0.14903029755309158
aF0.14903062008980236
aF0.21392634388271375
aF0.05630620627454346
aF0.14318098046613573
aF0.14318132197559422
aF0.25386266866000295
aF0.061200302433325325
aF0.14609686411380496
aF0.14609620006763566
aI1
aa(lp53
F0.6718745526785099
aF0.5075432117087978
aF0.1452676791485654
aF0.1452676791485654
aF0.3075950079505855
aF0.48432628584969245
aF0.11237045246615288
aF0.11237067065275136
aF0.04749864382171038
aF0.4336132648840225
aF0.09564518800443955
aF0.09564518800443955
aF0.21557896507064142
aF0.034808868880845334
aF0.0954982820190412
aF0.09549853815113507
aF0.25250021667531464
aF0.04302084326544705
aF0.09478290508084698
aF0.09478290508084698
aI1
aa(lp54
F0.670982605863897
aF0.508616092131799
aF0.16250976125747635
aF0.16250976125747635
aF0.30281867563674325
aF0.49418837109054253
aF0.10227521468627554
aF0.10227521468627554
aF0.03981270783968581
aF0.48405243913845397
aF0.08308894768924201
aF0.08308894768924201
aF0.21513340906378425
aF0.026351235359095487
aF0.0895780258284557
aF0.08957775072361414
aF0.24832566197284595
aF0.03890019013917836
aF0.08590719757727543
aF0.08590832645576325
aI1
aa(lp55
F0.6613106785442051
aF0.5065245945299994
aF0.17428849837215413
aF0.17428849837215413
aF0.29374294794060263
aF0.5008945377804699
aF0.10458473880400304
aF0.104583809139366
aF0.037581268436688416
aF0.5184643835921768
aF0.09489386719573815
aF0.09489386719573815
aF0.20277080461155658
aF0.017706682327059627
aF0.08613592353710624
aF0.08613507924983382
aF0.2509360464371387
aF0.04027188185199387
aF0.09353407139572709
aF0.09353380577725937
aI1
aa(lp56
F0.6370167581403406
aF0.5004112153335302
aF0.1436494934977032
aF0.1436494934977032
aF0.2845519228567227
aF0.503168201922809
aF0.11062305291711744
aF0.11062218017072349
aF0.03685936961647422
aF0.5617247847547984
aF0.09966631958267685
aF0.09966631958267685
aF0.1950693678946656
aF0.9982674984852985
aF0.07742582440497287
aF0.07742582440497287
aF0.2293707486611989
aF0.021908880322919193
aF0.06094382377101125
aF0.06094302691560808
aI1
aa(lp57
F0.6436364257019355
aF0.49012144997154133
aF0.12940597827091402
aF0.12940597827091402
aF0.297764013114223
aF0.4847967317299313
aF0.09966218352367946
aF0.09966242068302564
aF0.041866863516632526
aF0.4798413275085682
aF0.10632630423312242
aF0.10632721492501176
aF0.18268236448890282
aF0.01945194744197944
aF0.06384408336095407
aF0.06384370390600018
aF0.22440743991882758
aF0.03830767122867975
aF0.04607717710531841
aF0.046077698855880006
aI1
aa(lp58
F0.6590976213621302
aF0.4845118559232987
aF0.1376623014532516
aF0.1376623014532516
aF0.2976962804049537
aF0.49182580628504163
aF0.11884741650596364
aF0.11884680937803743
aF0.034888416552948186
aF0.5166081788925038
aF0.10884767805160649
aF0.10884834209777579
aF0.1931477510899256
aF0.020075885222660104
aF0.09032977352398024
aF0.09032977352398024
aF0.25358287754975245
aF0.07120755409576951
aF0.18828463742812884
aF0.1882854153107843
aI1
aa(lp59
F0.6562325846782822
aF0.5053242551879866
aF0.17187019400552034
aF0.1718699094143049
aF0.28734681729234424
aF0.5127475259290467
aF0.09543326241269222
aF0.09543300628059834
aF0.03614874060839056
aF0.66575387344026
aF0.0826665763800675
aF0.0826665763800675
aF0.20882206762497246
aF0.9931563540928917
aF0.05144526467656453
aF0.05144479510105909
aF0.26400487347679796
aF0.07540504685020084
aF0.1717715736630044
aF0.17177185825421984
aI1
aa(lp60
F0.6499633058211091
aF0.5045673706210237
aF0.14054485946959547
aF0.14054450847376312
aF0.2889892880602553
aF0.5284766120435006
aF0.030770030670028984
aF0.030767673306127945
aF0.04926816085137067
aF0.7066420419966336
aF0.029821604357123093
aF0.029821604357123093
aF0.21186506868219468
aF0.9872656574432143
aF0.019397111142162294
aF0.019397111142162294
aF0.25298282645841913
aF0.0646951205041439
aF0.23295688256667102
aF0.23295752764009262
aI1
aa(lp61
F0.6512090564347286
aF0.4919755593683909
aF0.13839204076145054
aF0.13839150952451507
aF0.29341891238272866
aF0.5327260877550214
aF0.016638908814785164
aF0.01663745739958654
aF0.06455706024656492
aF0.6805584602482443
aF0.03964611762855443
aF0.039646727128074113
aF0.20548749338118144
aF0.9594753632032202
aF0.030947798201145876
aF0.03094936108123721
aF0.22894682158671345
aF0.04188088469297192
aF0.2172611837449725
aF0.217261525254431
aI1
aa(lp62
F0.6668307615404186
aF0.47404295224917203
aF0.14552444682948865
aF0.1455247788525733
aF0.301322332971575
aF0.5168726495089909
aF0.028608161961233784
aF0.02860985053577859
aF0.07411305933465667
aF0.6566980102109556
aF0.03238708744240335
aF0.03238708744240335
aF0.19906565465979698
aF0.9534226013427365
aF0.03427943878382462
aF0.03427873442056646
aF0.214649357351855
aF0.9789615134503128
aF0.030323841447717517
aF0.03032224773691118
aI1
aa(lp63
F0.6602423610670244
aF0.4630849216531079
aF0.09013098656001131
aF0.09013045532307587
aF0.3319305735356393
aF0.5655154638531646
aF0.022341257069115907
aF0.02234017562249732
aF0.16550741744770878
aF0.6983906232695751
aF0.03135431066484126
aF0.03135662059687307
aF0.2264290620766652
aF0.8749147374208128
aF0.0112810297675954
aF0.0112810297675954
aF0.2202096625731808
aF0.9126441711590279
aF0.022015518707136306
aF0.022016616754909124
aI1
aa(lp64
F0.6471769680946977
aF0.463829642317205
aF0.10870909161607216
aF0.10870909161607216
aF0.3120108770309803
aF0.5411878715653294
aF0.029086483903359314
aF0.029086483903359314
aF0.12266632705289933
aF0.6847980535298097
aF0.0341331826150348
aF0.034131766773738095
aF0.20418211142155815
aF0.9076923599017593
aF0.014535645737821479
aF0.014535645737821479
aF0.21263164358004244
aF0.9449147279850917
aF0.026071515080855673
aF0.026069660494768537
aI1
aa(lp65
F0.6423613811658756
aF0.4691919550583717
aF0.08892331425101459
aF0.08892277352770529
aF0.3060230019676117
aF0.5292944441908385
aF0.03792096362619077
aF0.03792096362619077
aF0.0956139493753606
aF0.6703752932691769
aF0.03804378370839098
aF0.03804314812134322
aF0.19916283307348812
aF0.9200667274575577
aF0.008756429396206553
aF0.008761945722598724
aF0.21875464255249116
aF0.9569788911160853
aF0.021577660892656173
aF0.021577660892656173
aI1
aa(lp66
F0.6326427429413599
aF0.4794166012070861
aF0.031064708272439262
aF0.031064708272439262
aF0.3048147225306887
aF0.5076474124107293
aF0.0816926578090406
aF0.08169324596421913
aF0.07452185564285578
aF0.6310733697429218
aF0.0729425498952065
aF0.0729418858490372
aF0.18799907860257922
aF0.9347270075465777
aF0.02510356581057216
aF0.02510356581057216
aF0.21927204835486733
aF0.9700225033740586
aF0.03612898286326022
aF0.036130322813566144
aI1
aa(lp67
F0.6299255419075472
aF0.4846863340542841
aF0.04592475479352788
aF0.04592370180603084
aF0.30273559397458916
aF0.5044321337648051
aF0.07514835948766213
aF0.07514835948766213
aF0.07105202942393775
aF0.6043701760003262
aF0.06968553624399054
aF0.0696848437386997
aF0.17874491221437203
aF0.9533494424276266
aF0.010774999313258812
aF0.010770514630022529
aF0.2096879648570008
aF0.9910629011122829
aF0.028974940748070006
aF0.02897410831876491
aI1
aa(lp68
F0.6317931432996011
aF0.47097259960455473
aF0.049623985248006784
aF0.049623985248006784
aF0.29910597453140125
aF0.46938567155551925
aF0.1916443885081104
aF0.19164605810990754
aF0.053794669509945825
aF0.47766570830088145
aF0.11963461478055532
aF0.11963359973855366
aF0.17105654772064255
aF0.9954409005882795
aF0.04735657114378719
aF0.04735606362278637
aF0.2169809752342727
aF0.024250914243821177
aF0.060550333727014655
aF0.060550333727014655
aI1
aa(lp69
F0.6435628873318716
aF0.4821344378279465
aF0.15282928671494805
aF0.15282977052001426
aF0.29298242534926944
aF0.45573117239568556
aF0.1397207686871119
aF0.13971937419015634
aF0.06975311717127827
aF0.39562766110643666
aF0.05692522505459116
aF0.056924376024131834
aF0.16102260140219224
aF0.04105181356421854
aF0.05014461167430408
aF0.050145095479370294
aF0.1688058296343941
aF0.04768791152531676
aF0.05141940482145696
aF0.0514198743969624
aI1
aa(lp70
F0.6414753538485435
aF0.48566042930902387
aF0.0804099862284076
aF0.080408781458929
aF0.277973483075868
aF0.4511517961756597
aF0.09668684877110958
aF0.09668810097245742
aF0.08542884717602836
aF0.3455993903209951
aF0.06873076117538739
aF0.06873111217121973
aF0.16361961007936035
aF0.06354559966683075
aF0.06292252957356394
aF0.0629217611772823
aF0.18004517153211783
aF0.05916748635434797
aF0.03995948575903723
aF0.03995827624637171
aI1
aa(lp71
F0.5908695336505342
aF0.490124661701987
aF0.024463010274504593
aF0.024461034737150906
aF0.2617805275098449
aF0.5360317451597325
aF0.05907523579607731
aF0.059074827882001885
aF0.09034493274938812
aF0.7112728723084069
aF0.07895739946260975
aF0.07895709589864665
aF0.2430067280476893
aF0.9311363012089111
aF0.09589255468888018
aF0.09589255468888018
aF0.21884297966575667
aF0.9532867185237487
aF0.11466236038764605
aF0.11466236038764605
aI1
aa(lp72
F0.6286757690714165
aF0.4981626220467989
aF0.09037242426079742
aF0.09037296498410671
aF0.27455091322826997
aF0.5680762725277316
aF0.07592155587445526
aF0.07592155587445526
aF0.1367690644917955
aF0.734003760838957
aF0.08458697892895504
aF0.08458669433773963
aF0.2510902379576517
aF0.9170878922330381
aF0.08000110454284387
aF0.08000171167077008
aF0.23767341277978024
aF0.9450278055613508
aF0.047379030133870535
aF0.047379030133870535
aI1
aa(lp73
F0.6211460926394037
aF0.48095688357011807
aF0.05461398864638424
aF0.05461442976276814
aF0.27721880409082467
aF0.5664054896770735
aF0.04746265251933395
aF0.04746265251933395
aF0.13493680932869648
aF0.7171352616185243
aF0.05085285485936517
aF0.05085238054067281
aF0.23537632529816646
aF0.8987430286507594
aF0.03792797405646388
aF0.03792797405646388
aF0.20548058730102065
aF0.9219071978204083
aF0.028375774261097945
aF0.028376625663150735
aI1
aa(lp74
F0.6141627175045057
aF0.47048521106062474
aF0.049266002701320415
aF0.049266002701320415
aF0.27039935349600697
aF0.5503027115808422
aF0.045886833014073536
aF0.04588735950782206
aF0.12655710636810172
aF0.7007017505844828
aF0.052725374936258784
aF0.052725374936258784
aF0.226593328126204
aF0.8938853601675509
aF0.046112319377235506
aF0.046110744639176866
aF0.20045000119532472
aF0.9111006622430912
aF0.039878344060334865
aF0.03987895118826109
aI1
aa(lp75
F0.6106535939819254
aF0.48090941731277664
aF0.05303180378427233
aF0.053032259130216995
aF0.2756919153018683
aF0.5523002051467993
aF0.047497282527063305
aF0.047496775006062475
aF0.12925874974880486
aF0.6893264499767804
aF0.051368586316757295
aF0.05136764242255949
aF0.22013337315470133
aF0.8880604989523733
aF0.0427065546409079
aF0.0427065546409079
aF0.19053571599658348
aF0.9056874337618929
aF0.04400687087689677
aF0.04400796655307612
aI1
aa(lp76
F0.6053283990500297
aF0.48912036954059634
aF0.023795081806700813
aF0.023795081806700813
aF0.2850709413426529
aF0.5485599888141134
aF0.05824052027488483
aF0.05824052027488483
aF0.10807835210534301
aF0.6860259507878487
aF0.05664365524924431
aF0.05664365524924431
aF0.21188681145105256
aF0.9133111011859842
aF0.03897215819857727
aF0.03897463888533832
aF0.17093479959868707
aF0.9311836192416612
aF0.030593598346031092
aF0.030594388086653875
aI1
aa(lp77
F0.6314452969433705
aF0.49000272088806274
aF0.02505346352709796
aF0.025050570183074553
aF0.30162447397860964
aF0.5064299329698696
aF0.08410325924011045
aF0.08410325924011045
aF0.0627342819709393
aF0.6029436530466736
aF0.08881968510310734
aF0.08882023531279049
aF0.20317826334104322
aF0.9525571404839052
aF0.038727013697210357
aF0.03872826352696473
aF0.19521079075598027
aF0.9719616320249206
aF0.03483683202356036
aF0.03483752690044467
aI1
aa(lp78
F0.6561569213604767
aF0.5079738355703209
aF0.1568273758911104
aF0.15682768894144736
aF0.28864001874794765
aF0.5356050765232052
aF0.027960562792584638
aF0.0279614284241982
aF0.08038587186608792
aF0.7347416679150385
aF0.029959045313015367
aF0.029960657996569398
aF0.2579542934822991
aF0.9592997893960555
aF0.034440517411750755
aF0.034440517411750755
aF0.28092086148471007
aF0.9978226634428538
aF0.10380364975416899
aF0.10380318492185048
aI1
aa(lp79
F0.6408647349367443
aF0.5316577489334995
aF0.1879094513424705
aF0.18790933750598432
aF0.2876477250707787
aF0.5505417112835496
aF0.025157410468529092
aF0.025157410468529092
aF0.05804130642409278
aF0.714312591080278
aF0.03522732200182776
aF0.03522800976393168
aF0.25770525719606135
aF0.9797843994633177
aF0.03421310057151087
aF0.03421380730636249
aF0.29458184695266176
aF0.05093703251349183
aF0.2197811061482579
aF0.2197811061482579
aI1
aa(lp80
F0.6256698407631892
aF0.5330452757758595
aF0.16391103148394756
aF0.16391072791998446
aF0.2831704981243399
aF0.5102468430777203
aF0.05370837196705748
aF0.05370837196705748
aF0.016187573234661568
aF0.5879172748181409
aF0.038575672832038416
aF0.03857692740497971
aF0.245451119942403
aF0.006797124729761371
aF0.052147479271045696
aF0.052148404192495806
aF0.2878565581046518
aF0.06354677597718782
aF0.2834448440560021
aF0.2834448440560021
aI1
aa(lp81
F0.6498223003602437
aF0.5225452496807335
aF0.19615424858058367
aF0.19615487468125758
aF0.27642454795409066
aF0.5346623870948835
aF0.021853593420344306
aF0.021853593420344306
aF0.013650577730044572
aF0.6514549672765768
aF0.07625126428388994
aF0.07625126428388994
aF0.244933827976513
aF0.011603452957708565
aF0.06600402159267135
aF0.06600365636727823
aF0.31119863472943193
aF0.07438917004764761
aF0.2172295561745658
aF0.2172295561745658
aI1
aa(lp82
F0.6311083409443166
aF0.5028606563507241
aF0.17997083630665084
aF0.179971386516334
aF0.2568696404693534
aF0.5288892574478883
aF0.05735828276390459
aF0.05735743847663218
aF0.022922330669567816
aF0.7750934389485936
aF0.04796434888661909
aF0.04796434888661909
aF0.2567956277805972
aF0.0025169866863728805
aF0.041761531564619696
aF0.041761531564619696
aF0.3193331623579448
aF0.03414971768044371
aF0.03848407952094985
aF0.03848470799321723
aI1
aa(lp83
F0.6070431180411613
aF0.4966587583176403
aF0.14135405664513886
aF0.14135371513568037
aF0.2586382800094328
aF0.5150207634810118
aF0.0750387302082965
aF0.07503937528171811
aF0.020057929572767568
aF0.5928591348692437
aF0.03147662085444719
aF0.031477389250728814
aF0.24444526075063244
aF0.004066490990581051
aF0.02786533382871912
aF0.02786533382871912
aF0.3070931598013188
aF0.05721291388686266
aF0.20532208896678097
aF0.20532184232106093
aI1
aa(lp84
F0.6018251191337393
aF0.49652062011327025
aF0.11252938717358954
aF0.11252938717358954
aF0.2558305979418652
aF0.51405106160316
aF0.0745080055370388
aF0.07450865535364734
aF0.020820766839319518
aF0.5499538264666753
aF0.0320691397649458
aF0.03206989393166665
aF0.25078151340716714
aF0.007347258521910509
aF0.03838030570584143
aF0.038381565021969655
aF0.3117090775334042
aF0.06514428133306302
aF0.23851718778799683
aF0.2385176051884461
aI1
aa(lp85
F0.6032543362175644
aF0.5064914106013834
aF0.10819003518464657
aF0.10818958932507575
aF0.2693143779463505
aF0.5305559682725726
aF0.08519831880516658
aF0.08519888798759742
aF0.05343397860352607
aF0.7867854706063077
aF0.06751103642841773
aF0.06751103642841773
aF0.22645501679551122
aF0.041469479631964824
aF0.0997096248792895
aF0.09970987152500953
aF0.3074336447314439
aF0.06652883656881538
aF0.0827506351387279
aF0.0827506351387279
aI1
aa(lp86
F0.5911603479271952
aF0.517487689071003
aF0.08209965170620874
aF0.08209906355103021
aF0.26837236205057186
aF0.551134182762179
aF0.04412208763045842
aF0.04411989627809971
aF0.07739397864796768
aF0.7825274168412355
aF0.03151345407250256
aF0.03151345407250256
aF0.2548137725019272
aF0.9702137107253236
aF0.013654660428189079
aF0.013658197659837367
aF0.27889330085684405
aF0.05832111207969722
aF0.2274181683322215
aF0.22741773195902454
aI1
aa(lp87
F0.6501862735520146
aF0.49351627158273775
aF0.18358711790820947
aF0.1835873835266772
aF0.2726513048108556
aF0.5543199158003067
aF0.028018408328711646
aF0.028018408328711646
aF0.09367380568249693
aF0.7563875050049412
aF0.035011917282471945
aF0.035011917282471945
aF0.25071057430353744
aF0.938474087270742
aF0.01117776584508127
aF0.01117344243020039
aF0.26076281035076526
aF0.9679388023857647
aF0.022336931282641564
aF0.022339094175878735
aI1
aa(lp88
F0.6352963473249006
aF0.4864518668069285
aF0.12426801589964118
aF0.1242684048409689
aF0.2820302739333971
aF0.5435634208450337
aF0.021870170858642356
aF0.02186685774257621
aF0.07947049845125927
aF0.7321729476046828
aF0.02204293907074175
aF0.022041843394562395
aF0.2286791540622397
aF0.9555441719354286
aF0.014410454062159454
aF0.014408777345581955
aF0.25156884449099265
aF0.03313475156977982
aF0.14663966493897018
aF0.14664033847151334
aI1
aa(lp89
F0.6382058181838491
aF0.4824998576917291
aF0.12861224388474163
aF0.12861224388474163
aF0.29170791205014507
aF0.5491787849801689
aF0.017474603804077383
aF0.017475986443065618
aF0.07550176960215413
aF0.7277792956118382
aF0.03417281194178164
aF0.034170689365633326
aF0.22389720581507994
aF0.9674993556036651
aF0.021493516756631158
aF0.021493516756631158
aF0.26582189352349833
aF0.07100006812698267
aF0.21124247796660034
aF0.2112418898114218
aI1
aa(lp90
F0.6216260652105786
aF0.4778939362260852
aF0.11731826047365781
aF0.11731867787410709
aF0.27758131638102307
aF0.540104570360657
aF0.029690851294793125
aF0.029690851294793125
aF0.06928691881492952
aF0.73929721436396
aF0.03361592147985981
aF0.03361736103709113
aF0.22272474692580416
aF0.9642483373407206
aF0.024756580342768203
aF0.02475560324626194
aF0.24707535789977972
aF0.025899721909462256
aF0.1324809958398707
aF0.1324817357770308
aI1
aa(lp91
F0.6452475155451599
aF0.48014176333990377
aF0.10953553501926985
aF0.10953553501926985
aF0.28457926258615046
aF0.48308330051404935
aF0.04084853922962671
aF0.040849720283170694
aF0.028743172033827702
aF0.4693754499876988
aF0.03927674669006445
aF0.03927674669006445
aF0.2007184655752016
aF0.998232133283596
aF0.03753657101471368
aF0.03753657101471368
aF0.21653122625017507
aF0.008320332805664993
aF0.04546176757472641
aF0.04546229881166186
aI1
aa(lp92
F0.594101844784252
aF0.4592182875309402
aF0.006831653036077053
aF0.006824577386983743
aF0.3061376732546771
aF0.45229640307132
aF0.05232849351361181
aF0.05232803342448022
aF0.06222080827052283
aF0.3602804930006098
aF0.05420859794639629
aF0.05420993552510875
aF0.17971326228395057
aF0.04269527091500978
aF0.06132414198492094
aF0.06132414198492094
aF0.20221336631154507
aF0.06621172606384984
aF0.5793102353356908
aF0.5793100456082139
aI1
aa(lp93
F0.5812817314941197
aF0.4640364428954814
aF0.03394502750455518
aF0.03394502750455518
aF0.28840424441234835
aF0.45819847388324036
aF0.06610074940360473
aF0.0661003794350247
aF0.04401036186247255
aF0.3647630987210199
aF0.06665165633522242
aF0.0666512911098293
aF0.19274069078814055
aF0.029770314221117703
aF0.0660003551091794
aF0.06600109030315256
aF0.21810372552458895
aF0.0685002568362534
aF0.573008209515997
aF0.5730088545894186
aI1
aa(lp94
F0.6612456399651084
aF0.465673231325458
aF0.1454331499675828
aF0.14543281794449817
aF0.29931791909589633
aF0.5469559663194051
aF0.04473860232360362
aF0.04473698015367574
aF0.0918549168201487
aF0.7168256643216457
aF0.059265347471162924
aF0.05926576012842528
aF0.21357312823888563
aF0.9521437243116424
aF0.05407905202513838
aF0.05408129080936633
aF0.25095401362920533
aF0.03354179289881719
aF0.15906994518222406
aF0.15907010645057948
aI1
aa(lp95
F0.6618796333020672
aF0.4519421723854902
aF0.16179970617501044
aF0.16179925082906577
aF0.29046920032592016
aF0.5555037773109469
aF0.02267617349779271
aF0.022678303188721417
aF0.11908229912242131
aF0.7323009377606298
aF0.0367491687830843
aF0.03674785492030646
aF0.23301695028587174
aF0.9168836316313593
aF0.015366214527845994
aF0.015361497428450454
aF0.24548494835154225
aF0.961576595010384
aF0.01681080902367754
aF0.016815119394794378
aI1
aa(lp96
F0.6395977348457069
aF0.4638131834585801
aF0.13046671613539085
aF0.13046764580002787
aF0.2869647251265251
aF0.5628763024738064
aF0.021791590480878743
aF0.021789373040991954
aF0.13406989705466646
aF0.737541836774519
aF0.02844721851413497
aF0.02844721851413497
aF0.23417394638577652
aF0.9073717963567135
aF0.015122153844691129
aF0.015123751112887657
aF0.2354766342152272
aF0.9390588273546859
aF0.01908064571061837
aF0.019081910955730245
aI1
aa(lp97
F0.6382754861133833
aF0.4625457351363784
aF0.10742475043364204
aF0.10742362155515421
aF0.3006679818763401
aF0.5724998398005036
aF0.022415755934531743
aF0.022415755934531743
aF0.15204205998123485
aF0.7300134884348448
aF0.021135308908565915
aF0.02113645201661451
aF0.2339543368312129
aF0.8988395999365243
aF0.014955079828493539
aF0.014955079828493539
aF0.22946927413997634
aF0.9307992693188664
aF0.018511210705080293
aF0.018511210705080293
aI1
aa(lp98
F0.6488562839386316
aF0.4643362597409234
aF0.15808160732294937
aF0.15808145554096784
aF0.3156932976310019
aF0.5780861044838623
aF0.018241689780316164
aF0.018241689780316164
aF0.1730488759560399
aF0.7236797970992489
aF0.016816556580432233
aF0.016815119394794378
aF0.22855336474502533
aF0.888621029810259
aF0.028305857314250327
aF0.02830414976695782
aF0.21461300556727236
aF0.919070999713056
aF0.0291727601019065
aF0.0291727601019065
aI1
aa(lp99
F0.6374079761978009
aF0.4769719365791243
aF0.10310121222990241
aF0.10310167706222094
aF0.29987759618013576
aF0.5744837820814199
aF0.025281964185549892
aF0.025282919937715
aF0.15636795080568858
aF0.737681684897775
aF0.02856082021254913
aF0.028559973553683265
aF0.23831235800388723
aF0.8945896665074654
aF0.018528171155722428
aF0.01852947434632969
aF0.22418661610841153
aF0.916659601426583
aF0.02248141112792849
aF0.02248033679609029
aI1
aa(lp100
F0.5886721100125596
aF0.48103205359648354
aF0.029208357719768267
aF0.02921001072041115
aF0.2920701018036327
aF0.5688061304156037
aF0.05167462148025618
aF0.05167415190475074
aF0.15236309784497312
aF0.7316085463062674
aF0.05295193800285242
aF0.05295148265690775
aF0.2338467234062898
aF0.8812443496156545
aF0.022288202151781754
aF0.022288202151781754
aF0.20887230746086743
aF0.8977198283675961
aF0.02919263405511647
aF0.02919428942735281
aI1
aa(lp101
F0.5746423322749226
aF0.48107822614959156
aF0.009510254607603628
aF0.009507714038107663
aF0.27464372790999136
aF0.5366081087755693
aF0.08525176503542194
aF0.08525204962663735
aF0.10755956129238516
aF0.7062033730971896
aF0.0952251977751007
aF0.09522495112938067
aF0.2094446014223237
aF0.8859330468078959
aF0.03572398584778693
aF0.03572398584778693
aF0.1932237179716943
aF0.8850746058657114
aF0.03979642922216395
aF0.03979582209423772
aI1
aa(lp102
F0.5690365304046253
aF0.4677616683858952
aF0.028613230056461672
aF0.02861154148191686
aF0.2731286211973533
aF0.5195965894256254
aF0.0730635960254973
aF0.0730635960254973
aF0.08594690753819997
aF0.6708146831330334
aF0.08698664257097902
aF0.08698664257097902
aF0.18624064640075944
aF0.900773036763078
aF0.057881375647402165
aF0.057881793047851446
aF0.17742235991808522
aF0.9004837403062326
aF0.06065173832025473
aF0.06065054303714998
aI1
aa(lp103
F0.5934002705200055
aF0.47989674927617726
aF0.030656725420797552
aF0.03065593805176823
aF0.27148209026143555
aF0.5184160505174251
aF0.07334602909086424
aF0.07334471048489948
aF0.07198661748899399
aF0.6559871772458342
aF0.06966921019459944
aF0.06966816669347624
aF0.1607848918463281
aF0.9388326342566723
aF0.049662955271771246
aF0.04966343907683746
aF0.14397014242011377
aF0.9766381866586376
aF0.026608185336922115
aF0.02660727701662624
aI1
aa(lp104
F0.6460398174888814
aF0.4864382609752381
aF0.10703430077246348
aF0.10703316240760181
aF0.29053547213361697
aF0.5263008363106454
aF0.06448331317627648
aF0.06448293846450952
aF0.07889121303227756
aF0.6805121098256267
aF0.055505304617136285
aF0.05550486824393931
aF0.20048415214117477
aF0.9424122984551806
aF0.03727162845112758
aF0.037272275896142654
aF0.20222017752796737
aF0.9765113348675523
aF0.02191431807093395
aF0.021913215279974207
aI1
aa(lp105
F0.6442468169407622
aF0.4917505751901445
aF0.16314781476244172
aF0.16314811832640483
aF0.3325093941223025
aF0.5314608924466084
aF0.015258928382820634
aF0.015258928382820634
aF0.09322403772565159
aF0.7858483307066865
aF0.008390118406180673
aF0.008390118406180673
aF0.2542948109342401
aF0.8902217225877469
aF0.0022415687751219716
aF0.0022307660186788357
aF0.3853797255941341
aF0.9509389548330429
aF0.013177467364551368
aF0.013181133848043326
aI2
aa(lp106
F0.656235392644941
aF0.4961931925838475
aF0.1916235184856465
aF0.1916235184856465
aF0.3359276002379308
aF0.5307384339303373
aF0.016570525103110606
aF0.016570525103110606
aF0.08830303821063896
aF0.7835908772950065
aF0.017341370054986358
aF0.017341370054986358
aF0.23585625992384604
aF0.9021629423136802
aF0.01271657782016687
aF0.01271087769528141
aF0.38025537616933197
aF0.9614237885004526
aF0.013576588757223024
aF0.01356946923365067
aI2
aa(lp107
F0.6509586920561522
aF0.48884538209290274
aF0.18615542081811584
aF0.18615542081811584
aF0.33427146909167965
aF0.5295052171881635
aF0.014201048288465287
aF0.014195943433538742
aF0.08844204204662257
aF0.786078375272482
aF0.013245126554423345
aF0.013245126554423345
aF0.24037511307872647
aF0.8949663893856871
aF0.007115707085575151
aF0.007112311556636205
aF0.37868431882374287
aF0.9557601197496872
aF0.01340106949670793
aF0.01340106949670793
aI2
aa(lp108
F0.639859103417946
aF0.49011074993474
aF0.1377227676001539
aF0.13772347907819243
aF0.33724901416935593
aF0.524769884982089
aF0.017774809590847138
aF0.017776168513900754
aF0.07842963453999241
aF0.7849422491950412
aF0.022542588752869342
aF0.022542588752869342
aF0.2319470960161277
aF0.8945186325400973
aF0.007411700329458366
aF0.007414958898874893
aF0.37152999923211766
aF0.9572053498325666
aF0.012127298506337097
aF0.012127298506337097
aI2
aa(lp109
F0.6440280232143495
aF0.5014117200601623
aF0.148863346859754
aF0.14886318559139858
aF0.3380044710370547
aF0.5305326910827449
aF0.016119707716158414
aF0.01611820886909055
aF0.08970920340601533
aF0.7822911871596916
aF0.013908838329052025
aF0.013908838329052025
aF0.22080075852760234
aF0.9022479402233514
aF0.011220907501745056
aF0.011220907501745056
aF0.3657345837213618
aF0.9662094743789081
aF0.013332389335850642
aF0.013334201233255466
aI2
aa(lp110
F0.6572047482701473
aF0.49312927970482656
aF0.15627949036956307
aF0.15627949036956307
aF0.3362527551879188
aF0.5373822253406256
aF0.02307438064118484
aF0.02307333239687472
aF0.09217232140270348
aF0.7762591814851856
aF0.019328483156361168
aF0.019328483156361168
aF0.21169258743290417
aF0.9225666525847731
aF0.02396406021244824
aF0.02396406021244824
aF0.3767602545345503
aF0.980436492801577
aF0.021587735421681943
aF0.02158661602956797
aI2
aa(lp111
F0.6590896528080985
aF0.48603311099198654
aF0.17293716441761478
aF0.17293729722684867
aF0.3442469983199787
aF0.511637539554742
aF0.019600322313734216
aF0.019600322313734216
aF0.04759923258679959
aF0.7712297716898466
aF0.01350164640382983
aF0.013503434585300034
aF0.1844395065438794
aF0.9405003008335217
aF0.023980187047988544
aF0.023981194975209813
aF0.36841425666023475
aF0.999296276756284
aF0.020668308953627063
aF0.02067064734478041
aI2
aa(lp112
F0.634504918127573
aF0.4745545452759733
aF0.10316519782150205
aF0.10316543498084824
aF0.3580079701682803
aF0.48241155733816227
aF0.01634149676511342
aF0.01634149676511342
aF0.016848174664465084
aF0.5218472043475582
aF0.02288617335564906
aF0.022885117996558558
aF0.1638820411254704
aF0.9563256594129643
aF0.033145314331265545
aF0.033145314331265545
aF0.3580145347389826
aF0.010153669415382581
aF0.02663632192175303
aF0.02663632192175303
aI2
aa(lp113
F0.6463877776815982
aF0.4763746602521413
aF0.07870732441843574
aF0.07870732441843574
aF0.359625814309684
aF0.4817849515148371
aF0.022592909222942024
aF0.022592909222942024
aF0.016736995548772164
aF0.47155138698890947
aF0.02471359758286636
aF0.024712620486360092
aF0.16165978216076365
aF0.9728516436192687
aF0.034597350887380245
aF0.03459595401883124
aF0.35764441437695865
aF0.017997762222188338
aF0.02409377926002886
aF0.02409478007246974
aI2
aa(lp114
F0.6307088887143569
aF0.4698938020558662
aF0.008868820989056826
aF0.008868820989056826
aF0.35632713650453096
aF0.4825618641885849
aF0.029777001798886833
aF0.029779435053778648
aF0.008214980972212928
aF0.45271271733079305
aF0.030980578365975012
aF0.030980578365975012
aF0.17104425338013654
aF0.9597627623852962
aF0.054861431221815644
aF0.054861431221815644
aF0.34584939864475905
aF0.00925789010573541
aF0.043998077008340374
aF0.04399753154184416
aI2
aa(lp115
F0.6320615697339825
aF0.47113266319047925
aF0.0010541420924980555
aF0.0010541420924980555
aF0.36338367055453885
aF0.48818283239907034
aF0.016670822162204012
aF0.016670822162204012
aF0.018511536799181293
aF0.6048388408138752
aF0.026969891285343526
aF0.026970785376078627
aF0.1648148552386172
aF0.9417401698953559
aF0.04525869276977855
aF0.04525815678965618
aF0.32902345529740495
aF0.002217217272800099
aF0.03075981858858243
aF0.03075981858858243
aI2
aa(lp116
F0.6323337148269123
aF0.4677958738783949
aF0.003645038358079817
aF0.0036648666581156446
aF0.3685334434612515
aF0.4942104998362363
aF0.0321789753729426
aF0.03218047896319739
aF0.03539691702187525
aF0.6278505639557991
aF0.03703090697156694
aF0.03703090697156694
aF0.1617888158178338
aF0.9152277661035759
aF0.03342268878777845
aF0.0334219654517726
aF0.31110337256325793
aF0.988475321890719
aF0.020397669822545695
aF0.020398853247683136
aI2
aa(lp117
F0.6551423347047666
aF0.45631069971720034
aF0.052904871359009335
aF0.052904871359009335
aF0.37278853747768326
aF0.5030233464764075
aF0.03585904335225008
aF0.03585904335225008
aF0.04287949597933
aF0.6371367373693668
aF0.029862903285667052
aF0.029865329425778485
aF0.16848443128844962
aF0.9056439861696726
aF0.0186321963597378
aF0.018630900283910918
aF0.31648489758305864
aF0.9840101995573093
aF0.013839185814875397
aF0.013837440322087504
aI2
aa(lp118
F0.6425067124132153
aF0.4557458241000926
aF0.05268086012698061
aF0.05268086012698061
aF0.36901998060312874
aF0.5005867158806906
aF0.0396381893916116
aF0.0396381893916116
aF0.03457690538014598
aF0.643754080769369
aF0.028354477351810892
aF0.02835362357816464
aF0.16030213028124207
aF0.9265308184880577
aF0.03893864995455536
aF0.03893740961117483
aF0.3231289640981886
aF0.996985168414124
aF0.01961510801317187
aF0.01961510801317187
aI2
aa(lp119
F0.6452311989821427
aF0.4571287334499825
aF0.05898507729903314
aF0.05898507729903314
aF0.36041879927232245
aF0.5005412043351478
aF0.032642033739547924
aF0.032642033739547924
aF0.03456132638269536
aF0.6879394472565755
aF0.023377112174991423
aF0.023377112174991423
aF0.16809708367151913
aF0.9333679516837267
aF0.041590416353163184
aF0.041590995021967864
aF0.33759689847108193
aF0.9968261008974535
aF0.022256742964510846
aF0.0222589129725284
aI2
aa(lp120
F0.6565724245349858
aF0.45704988271056424
aF0.09754509998581708
aF0.09754435056228314
aF0.34355494837507483
aF0.5046803637092658
aF0.022087833334973814
aF0.022087833334973814
aF0.04026068287187402
aF0.7587283815882339
aF0.02248141112792849
aF0.02248033679609029
aF0.19691740838384642
aF0.9306181554693749
aF0.030364457357344474
aF0.030364457357344474
aF0.3667087204789872
aF0.9888122399442775
aF0.021708276402565358
aF0.02170604947630472
aI2
aa(lp121
F0.6589645844552965
aF0.4574229106461723
aF0.15332451337526937
aF0.15332483591198018
aF0.3414663524178757
aF0.49927099269894554
aF0.021211761966994282
aF0.021211761966994282
aF0.027521165813947795
aF0.7534083851892063
aF0.020627353906135067
aF0.020627353906135067
aF0.18299879197495136
aF0.9482031984519851
aF0.03878875813298858
aF0.038789379490475576
aF0.36100463977563263
aF0.005527164890083667
aF0.02783930796206922
aF0.027838439958862198
aI2
aa(lp122
F0.6569363218357659
aF0.46199597131280934
aF0.1457165553862691
aF0.1457165553862691
aF0.346594041046272
aF0.5009390035274084
aF0.023563450644879295
aF0.0235654997016303
aF0.026676401851257615
aF0.7322750020145314
aF0.02098847169937795
aF0.020987321476548974
aF0.17078667935743627
aF0.9633731624350697
aF0.028870502886792278
aF0.02886966571430026
aF0.3606523537964415
aF0.015603515299631145
aF0.020534610372217526
aF0.02053814167488216
aI2
aa(lp123
F0.654353827310584
aF0.46363505307366354
aF0.15492029221110437
aF0.15492029221110437
aF0.3485252390885977
aF0.5080633104555498
aF0.022546876593848294
aF0.02254794855409303
aF0.04129003981166418
aF0.7275119885695707
aF0.016595291653632285
aF0.016595291653632285
aF0.16998952039030502
aF0.9545438527859849
aF0.024812151520765335
aF0.024812151520765335
aF0.36239044721273284
aF0.011486315213442847
aF0.020256223245296422
aF0.020256223245296422
aI2
aa(lp124
F0.6499570827598653
aF0.4694866682346839
aF0.14339265941216303
aF0.1433931716763508
aF0.34920465318353705
aF0.5074109022882585
aF0.023536774961620856
aF0.023537799489996358
aF0.04392162157831855
aF0.7197237515319775
aF0.016152646777749493
aF0.01615713383257924
aF0.1734911876230413
aF0.9464286014691297
aF0.03208345470308128
aF0.03208270053636043
aF0.3632872131052601
aF0.006416076065065437
aF0.024500514653509657
aF0.024500514653509657
aI2
aa(lp125
F0.6339681790952962
aF0.47183406195680955
aF0.11841690588802821
aF0.11841690588802821
aF0.352879598520967
aF0.503043753445248
aF0.025162210573695797
aF0.02516317106904783
aF0.034696229733583495
aF0.6996769945360085
aF0.01610471331649612
aF0.01610771338222531
aF0.16738725626202555
aF0.9388796107799638
aF0.0280821567609651
aF0.028083878537818373
aF0.35886094695912873
aF0.0009982182334297676
aF0.022238280109410653
aF0.02224045248902167
aI2
aa(lp126
F0.6364168398582412
aF0.45881153553630516
aF0.05264182369859922
aF0.0526427438768624
aF0.3581123202805999
aF0.4909312009141581
aF0.022128271375091137
aF0.022127180442098705
aF0.019608501939583998
aF0.6614473253320808
aF0.019193009437245466
aF0.019191750121117245
aF0.17360843920379318
aF0.9410798803300927
aF0.03633644274451897
aF0.036337773208451045
aF0.34948947207192654
aF0.9972606906561432
aF0.027394816800676406
aF0.027396581266211993
aI2
aa(lp127
F0.645808957094935
aF0.45471327499550285
aF0.012684241143315091
aF0.012680431178418694
aF0.37004481254259375
aF0.48812135358175984
aF0.0272816775629873
aF0.02728344914330327
aF0.02804072739478074
aF0.6079753395717359
aF0.029815120420598504
aF0.029814309335634566
aF0.18460597343215074
aF0.9010960667653242
aF0.018711127733333756
aF0.018708545068053847
aF0.3319169131572993
aF0.9716978349409765
aF0.012699467959136642
aF0.012703271995049385
aI2
aa(lp128
F0.6449615582919087
aF0.46003480818709364
aF0.03713128703643151
aF0.03713128703643151
aF0.40635971410369914
aF0.49187808272682193
aF0.04371031260087128
aF0.04371086281055441
aF0.06178432123706363
aF0.5773292483760211
aF0.04014658076723942
aF0.04014718315197872
aF0.17664377527094685
aF0.8808016015754561
aF0.023366774399091392
aF0.023365740384342044
aF0.304172096593529
aF0.961757367350417
aF0.023093220579645458
aF0.0230921747069288
aI2
aa(lp129
F0.6539522121873873
aF0.4630751815187602
aF0.0384740287078587
aF0.0384740287078587
aF0.41644095948215176
aF0.4981340830322024
aF0.06066131007146659
aF0.06066210692686976
aF0.07492040666729988
aF0.5846528428225765
aF0.05331561711703405
aF0.05331561711703405
aF0.17058239978300982
aF0.8582897534170387
aF0.02390550794146961
aF0.023906518240284343
aF0.28396249650409827
aF0.9500191180793192
aF0.02666986573967687
aF0.02666895979097446
aI2
aa(lp130
F0.6416737328984369
aF0.4547479287191668
aF0.04597579148482603
aF0.04597579148482603
aF0.3596151136799843
aF0.5117598663455022
aF0.02814232645868468
aF0.02814232645868468
aF0.05628551617738946
aF0.7236025021251415
aF0.027525055227225162
aF0.027525055227225162
aF0.2020922822357589
aF0.9108806922063213
aF0.042232387730527454
aF0.04223124462247886
aF0.35514558966910953
aF0.9742521359630844
aF0.024581253181323516
aF0.024580268970036862
aI2
aa(lp131
F0.6591403479899381
aF0.4527806824562216
aF0.0598025560789452
aF0.059802959249833705
aF0.36155314191148
aF0.5175886146023637
aF0.03842373669690756
aF0.038421848908511955
aF0.07746148368426464
aF0.7202937687637104
aF0.030649629613159816
aF0.030649629613159816
aF0.2158997562886597
aF0.8852092364833515
aF0.01623618971483194
aF0.01623618971483194
aF0.3497471219856176
aF0.9574285831819398
aF0.011362114548054685
aF0.011362114548054685
aI2
aa(lp132
F0.6609029162507554
aF0.45426591183442777
aF0.03227196792417363
aF0.03227047144869923
aF0.37456313446053874
aF0.5351325317827527
aF0.04969167526859377
aF0.04969118672034063
aF0.10794325665538447
aF0.712148654341984
aF0.04562474347742199
aF0.04562474347742199
aF0.2377590178173777
aF0.849082810197843
aF0.013113145006680158
aF0.013113145006680158
aF0.33786627354284815
aF0.9274281915085112
aF0.009876605321819994
aF0.009876605321819994
aI2
aa(lp133
F0.6561931972540684
aF0.45425108463210456
aF0.01277911555395807
aF0.01277911555395807
aF0.386442503028988
aF0.5352418053230991
aF0.046667912577533735
aF0.04666842958490841
aF0.11812909879187679
aF0.6918386884172496
aF0.04600628543355798
aF0.046006807184119584
aF0.24548105893826488
aF0.830311591029374
aF0.004944376311765693
aF0.004939488161191719
aF0.3217126484827956
aF0.9128169369995338
aF0.013514164859917993
aF0.013512377864244519
aI2
aa(lp134
F0.6433024294515218
aF0.45591309258695406
aF0.0007290067081561195
aF0.0007290067081561195
aF0.3889572268994052
aF0.5405288199718532
aF0.05923104948651823
aF0.05923146214378058
aF0.12732489552180193
aF0.6964906923154499
aF0.042554578188688186
aF0.04255343982382652
aF0.2363664560820983
aF0.8302651077975225
aF0.010886524681597157
aF0.010882085058636649
aF0.3115282672478758
aF0.9165099823382643
aF0.014515687593043617
aF0.014514023920230159
aI2
aa(lp135
F0.6453035989873448
aF0.4596599398949592
aF0.02419685108347258
aF0.02419685108347258
aF0.37988472457037264
aF0.5241612392360501
aF0.023010416393926363
aF0.023011464638236483
aF0.09169363897837177
aF0.6908251073171674
aF0.026511746860391074
aF0.02651083616850174
aF0.20327684573806373
aF0.851960330949674
aF0.0250196849214214
aF0.025021615398499317
aF0.3024207032811039
aF0.9394964906985022
aF0.01819793032355558
aF0.018200585322436076
aI2
aa(lp136
F0.6470369492167125
aF0.4647380290176952
aF0.02876820657441057
aF0.02876904611849605
aF0.3669936152583675
aF0.4976783425136727
aF0.021003431710935046
aF0.021004581933764026
aF0.04275840241716999
aF0.6579823419070119
aF0.025390685144619646
aF0.025390685144619646
aF0.18054762680931072
aF0.8913634645985052
aF0.03588262647763432
aF0.03588262647763432
aF0.30821997025964165
aF0.9701328488746497
aF0.01892808821800052
aF0.018926811114921335
aI2
aa(lp137
F0.6177005278215999
aF0.4741378895070418
aF0.07532118698959807
aF0.07532118698959807
aF0.3836036866824538
aF0.48213105119248306
aF0.036575783956684836
aF0.03657644325966722
aF0.03660793090605967
aF0.49174618181325647
aF0.04307798412252273
aF0.043078543818579715
aF0.16186330282528233
aF0.8971576658534086
aF0.02923895364701908
aF0.029239778961543787
aF0.30436434744591717
aF0.9801201412065192
aF0.014361753390421186
aF0.014365117495746763
aI2
aa(lp138
F0.6724154277697842
aF0.47179884379390163
aF0.07961780760754614
aF0.07961780760754614
aF0.38720057813586867
aF0.4947218918704917
aF0.0360714053171944
aF0.036070065366888476
aF0.046468788847293246
aF0.5645141012025977
aF0.03245939021227355
aF0.032458645531926546
aF0.13493440927611314
aF0.9217656990681029
aF0.061597733749862264
aF0.06159851637570466
aF0.2899353641240406
aF0.007441628968942852
aF0.07512838118433984
aF0.07512805864762903
aI2
aa(lp139
F0.6832620717357275
aF0.4800598342721721
aF0.15615125356789608
aF0.1561507792492037
aF0.37678818241915657
aF0.49225329549290675
aF0.023483331102958967
aF0.023482301831396542
aF0.04838140782643914
aF0.5379483199567727
aF0.02317989994908115
aF0.023177815318428222
aF0.14905833927418402
aF0.9315979461058133
aF0.06261878062616225
aF0.06261994270695853
aF0.3323015286985618
aF0.0010221618410202011
aF0.04437070177305996
aF0.04437070177305996
aI2
aa(lp140
F0.6874372904843655
aF0.4863775386962419
aF0.21368535204149847
aF0.21368512436852613
aF0.37060739245723046
aF0.4838096164270862
aF0.027002125983676448
aF0.026999441339877677
aF0.03997193188152481
aF0.5118016846530142
aF0.02156085815297925
aF0.02156085815297925
aF0.1678977939297363
aF0.9314271913765629
aF0.038162410813350714
aF0.038161777597896414
aF0.3545431669843144
aF0.9980728001484577
aF0.02601306004520898
aF0.02601306004520898
aI2
aa(lp141
F0.6621548899256187
aF0.490627777467959
aF0.18661873531681503
aF0.18661873531681503
aF0.3668718861091597
aF0.4831932819750441
aF0.020239517740951434
aF0.020239517740951434
aF0.02998893450541456
aF0.4814170011608307
aF0.019189231488860804
aF0.019189231488860804
aF0.15736614500739055
aF0.9369840815033037
aF0.02738334777469509
aF0.027384230007462887
aF0.3507758623111077
aF0.002383911834043799
aF0.019308472836527146
aF0.019309723852078253
aI2
aa(lp142
F0.640872020471859
aF0.4774642272067399
aF0.08802898635656604
aF0.08802816104204134
aF0.36966050056529437
aF0.4720680220234106
aF0.029628931361098725
aF0.029628931361098725
aF0.032601780683720626
aF0.38351544949190686
aF0.029476018129461604
aF0.029476018129461604
aF0.16167507419540542
aF0.9511793016008366
aF0.034129641825996315
aF0.0341303509324414
aF0.34399101800808474
aF0.00763833841703922
aF0.0191046889251342
aF0.019103423680022324
aI2
aa(lp143
F0.6456671927241618
aF0.46702469808923125
aF0.04326390282036786
aF0.04326390282036786
aF0.3643275647523392
aF0.48762486286212336
aF0.029412822278484754
aF0.029412001707146966
aF0.025524201113332624
aF0.592356290650723
aF0.02886966571430026
aF0.02886966571430026
aF0.17324325175616984
aF0.9383830939727993
aF0.04292732153308086
aF0.04292788122913785
aF0.3376375001511481
aF0.9979779743554807
aF0.024412583082726126
aF0.024412583082726126
aI2
aa(lp144
F0.6645478087558373
aF0.45792292318209954
aF0.14312771447698347
aF0.14312771447698347
aF0.3594442071687524
aF0.5056995948343216
aF0.036252535767840134
aF0.0362512029323146
aF0.04246442917801786
aF0.701422278623676
aF0.032029173671927376
aF0.032029173671927376
aF0.19475210560771852
aF0.9090373000403257
aF0.029920302962223238
aF0.029918687907075747
aF0.34837064914038307
aF0.9783133284980785
aF0.01625700874803644
aF0.01625998035464409
aI2
aa(lp145
F0.6572543809781161
aF0.4611004078181672
aF0.13400485847556978
aF0.13400485847556978
aF0.35665942520765204
aF0.5078804718647132
aF0.03340677776724317
aF0.03340750110324903
aF0.048176725081124167
aF0.7193067495104005
aF0.02247173739819777
aF0.022472811730035968
aF0.19109298354186574
aF0.9122603904186639
aF0.032397534311602624
aF0.032396787259662156
aF0.3625721302446551
aF0.9834141517157394
aF0.019910959554345742
aF0.019910959554345742
aI2
aa(lp146
F0.6477209547165939
aF0.4653916544053308
aF0.11917898424467238
aF0.11917857633059695
aF0.3532682742302361
aF0.49639780566360453
aF0.027124450402843146
aF0.027124450402843146
aF0.03022658239984869
aF0.6802111451289491
aF0.0268504625817937
aF0.026852262621231214
aF0.18479609933679714
aF0.9190796512860047
aF0.026944792711737192
aF0.0269429974154866
aF0.36286533508752566
aF0.9868906421122852
aF0.01712829542620677
aF0.017125474415783947
aI2
aa(lp147
F0.6328075781733296
aF0.4609128788083615
aF0.05379116429480927
aF0.05379071843523845
aF0.356577083482658
aF0.4855068970914932
aF0.021930850448956228
aF0.021930850448956228
aF0.0172167487475519
aF0.6140980160074737
aF0.02831439267911938
aF0.02831353890547313
aF0.18584851765140992
aF0.9260076639431302
aF0.035200553826424306
aF0.035201241588528234
aF0.35313686897970414
aF0.9896862764850668
aF0.019795345558879233
aF0.019795345558879233
aI2
aa(lp148
F0.6440050282441439
aF0.614244182055712
aF0.4265170442732315
aF0.4265170442732315
aF0.29593608373759833
aF0.5526189615376274
aF0.954136521806752
aF0.9541366735887336
aF0.21899516007501407
aF0.7111820307924457
aF0.9806642935241645
aF0.980664141742183
aF0.2869929376023468
aF0.8639727364249571
aF0.9701876940292543
aF0.9701876181382635
aF0.38970327328424753
aF0.8978121118123821
aF0.9670209147660733
aF0.9670211424390456
aI3
aa(lp149
F0.656449632911907
aF0.6294705994495614
aF0.47950762501995065
aF0.4795077388564368
aF0.29592729935541584
aF0.5526969015851563
aF0.95432070924137
aF0.9543204815683977
aF0.24642231592413574
aF0.7142290540721792
aF0.9880767942664163
aF0.9880767183754254
aF0.31358070114796927
aF0.8403032470932132
aF0.9764659280233392
aF0.9764662315873024
aF0.3838025969692827
aF0.8842788129364142
aF0.9683140213579383
aF0.9683142490309106
aI3
aa(lp150
F0.6947215354522026
aF0.6230937166538391
aF0.18398283250687325
aF0.18398349655304255
aF0.45796794045339845
aF0.6669617354767338
aF0.9202536988271066
aF0.9202538506090882
aF0.38535919708112865
aF0.7401180323474663
aF0.9381059919337413
aF0.938106067824732
aF0.4259222486330096
aF0.7973460624552613
aF0.9543573645899157
aF0.9543573645899157
aF0.46913715907564335
aF0.825742535984094
aF0.9523463292252917
aF0.9523460256613285
aI3
aa(lp151
F0.6871983097544059
aF0.623019637560466
aF0.19229993488645009
aF0.1923002005049178
aF0.4864417469018338
aF0.6826349895379097
aF0.9156999358164684
aF0.9156998599254776
aF0.41899017580787745
aF0.7434933031350619
aF0.923875216907029
aF0.9238750651250474
aF0.48315820934934095
aF0.7791385236207953
aF0.9417341884208521
aF0.9417341884208521
aF0.5121052720162673
aF0.7958302537509585
aF0.9448788834057167
aF0.9448787316237351
aI3
aa(lp152
F0.6953338239657989
aF0.6235633965093897
aF0.19812361979127066
aF0.19812361979127066
aF0.4951797596890127
aF0.6865133606761199
aF0.9365853641515242
aF0.9365852123695426
aF0.42763298334712546
aF0.7448388504015544
aF0.940113080966845
aF0.940113080966845
aF0.5250012762971776
aF0.766453344512266
aF0.9432703738561787
aF0.9432702220741972
aF0.532582027365984
aF0.7808493152531542
aF0.9379107244144698
aF0.9379107244144698
aI3
aa(lp153
F0.6673799087496877
aF0.6039624611387456
aF0.2118337446757511
aF0.21183397234872345
aF0.4945299430804767
aF0.6838489418263933
aF0.9477945393804136
aF0.947794767053386
aF0.42340407172251204
aF0.7445762486007151
aF0.955784646453476
aF0.9557847223444669
aF0.550233968256965
aF0.7586701352528118
aF0.9077560463567896
aF0.9077560463567896
aF0.550090458393404
aF0.7696880462121932
aF0.9074250098550164
aF0.9074250857460071
aI3
aa(lp154
F0.6661196629568296
aF0.6037771637983875
aF0.21986316328203653
aF0.2198629545818119
aF0.5001098281774232
aF0.6919409894728182
aF0.9141478891640692
aF0.9141478891640692
aF0.4387115881263815
aF0.7439819272791856
aF0.9067693116946951
aF0.9067691599127136
aF0.5563057028651432
aF0.7568336301942292
aF0.8923595857117285
aF0.8923595857117285
aF0.5514922788295583
aF0.7656448398420134
aF0.8903083281219921
aF0.8903084799039737
aI3
aa(lp155
F0.6800867167905886
aF0.6254908664067935
aF0.2667275386619466
aF0.26672734893446964
aF0.492741761610272
aF0.6855408555747963
aF0.8653598479226681
aF0.8653596202496957
aF0.42159285733660623
aF0.7426319024442372
aF0.8680595940286018
aF0.8680597458105833
aF0.5124800217287288
aF0.7702720843044725
aF0.8640889015001102
aF0.8640889015001102
aF0.5201686138954306
aF0.7845912343899456
aF0.8613899143040843
aF0.8613896107401212
aI3
aa(lp156
F0.670646712338714
aF0.6314203054072631
aF0.2605367880074809
aF0.26053631368878855
aF0.49482929509360024
aF0.6898608743338386
aF0.8264982723840281
aF0.826498651838982
aF0.42153267578091935
aF0.7430818411558118
aF0.8491618266330105
aF0.8491617507420197
aF0.5111594425982021
aF0.7707890537336516
aF0.8474553418143782
aF0.8474554935963597
aF0.5236124711659418
aF0.7826034785867427
aF0.8451387693208822
aF0.8451385416479099
aI3
aa(lp157
F0.670572870404687
aF0.6280960143927226
aF0.24321927974011057
aF0.2432194884403352
aF0.4897082848723924
aF0.6874458901980512
aF0.824794443750073
aF0.824794443750073
aF0.4343865605619479
aF0.7424234678380656
aF0.8397313085549831
aF0.8397312326639923
aF0.46201911537761
aF0.7855038235540501
aF0.8372974844807353
aF0.837297560371726
aF0.4959116144585795
aF0.8056985679820361
aF0.8359621824979977
aF0.8359621824979977
aI3
aa(lp158
F0.66741330078563
aF0.6336835739661114
aF0.25349966307836447
aF0.2534998717785891
aF0.48696710228549395
aF0.6859745915598398
aF0.818037109931207
aF0.8180370340402162
aF0.4301513499850999
aF0.7414666531990853
aF0.8276832343140345
aF0.8276831584230437
aF0.44046467001335143
aF0.7912372550980881
aF0.8222534615968466
aF0.8222535374878375
aF0.48445222663309523
aF0.817525419984867
aF0.8148238853816699
aF0.8148240371636515
aI3
aa(lp159
F0.6644451282453148
aF0.6343489007958877
aF0.24413701051884024
aF0.24413701051884024
aF0.48861617556960274
aF0.6866739080671106
aF0.809466588560675
aF0.8094667403426566
aF0.4248919525422086
aF0.7396619654383864
aF0.8227352934972957
aF0.8227351417153141
aF0.45208965198071316
aF0.7881056513091327
aF0.8099648888061228
aF0.8099650405881044
aF0.49473575944746645
aF0.809904408745453
aF0.808793056017521
aF0.8087931319085118
aI3
aa(lp160
F0.5823985053689121
aF0.6106133009248025
aF0.4070898992714689
aF0.4070898233804781
aF0.511868568016031
aF0.7059661947782608
aF0.8459246964213784
aF0.8459247723123691
aF0.47657386904395327
aF0.7471862156645586
aF0.8623776355490589
aF0.8623774837670773
aF0.5184509351556584
aF0.7690705591657288
aF0.8757053836765049
aF0.8757051560035325
aF0.5337663062770734
aF0.7828161441156501
aF0.8667361310404257
aF0.8667363587133979
aI3
aa(lp161
F0.5931712315098377
aF0.6116218732194934
aF0.4153878202031266
aF0.41538789609411736
aF0.5156907039300748
aF0.7093696021506875
aF0.8545012890711726
aF0.8545012131801818
aF0.47826934966892276
aF0.7474456679892806
aF0.8637160490624183
aF0.8637162767353906
aF0.5621326890280627
aF0.7555874242346651
aF0.8397174963946615
aF0.8397172687216892
aF0.5625065280486347
aF0.7604150019400301
aF0.8353796432527865
aF0.8353798709257587
aI3
aa(lp162
F0.588668543135993
aF0.6126916800573681
aF0.40050358580032097
aF0.4005035099093302
aF0.5201982872728247
aF0.7096885909576748
aF0.8561955554402896
aF0.856195403658308
aF0.47871403292938597
aF0.7475135335077837
aF0.8640670448947662
aF0.8640671966767478
aF0.5685973871864889
aF0.7535573402313557
aF0.8401588783970259
aF0.8401588025060351
aF0.5676332680396462
aF0.7563344382296397
aF0.837491689526136
aF0.8374913859621728
aI3
aa(lp163
F0.5593703328547371
aF0.6049088881983632
aF0.4222270024555465
aF0.4222270783465373
aF0.5346944530942874
aF0.725726349447557
aF0.8413874776467296
aF0.8413873258647481
aF0.5214582295017197
aF0.753032516084631
aF0.8556891348588286
aF0.8556892866408101
aF0.5411906460138866
aF0.7626800254780401
aF0.8531753216803007
aF0.8531753216803007
aF0.5511927750344532
aF0.7693039998533616
aF0.841851095709392
aF0.8418514751643459
aI3
aa(lp164
F0.5583302088806303
aF0.599614210931134
aF0.45532928659504096
aF0.4553292107040502
aF0.5466938812101474
aF0.7393241177201908
aF0.820060136072374
aF0.820060136072374
aF0.5517043941487826
aF0.7571221677411669
aF0.8306870756200153
aF0.8306873791839784
aF0.5620831322110846
aF0.7559589865255137
aF0.8292524323303495
aF0.8292521287663864
aF0.5645283019884538
aF0.7587361414420409
aF0.8182534751459148
aF0.8182530197999702
aI3
aa(lp165
F0.5623163831712406
aF0.6070895399273759
aF0.45930225585325585
aF0.4593020281802835
aF0.5498866910831652
aF0.7422124719109553
aF0.7743373319484931
aF0.7743375596214654
aF0.5537443819263884
aF0.7574067779293318
aF0.7826045170288858
aF0.7826048205928489
aF0.5674517367897055
aF0.7541100922626867
aF0.7852333050584421
aF0.7852333050584421
aF0.5675255787237323
aF0.7564533594121888
aF0.7722877439605539
aF0.7722875921785723
aI3
aa(lp166
F0.5666804566504294
aF0.6080810272627679
aF0.4609911339620277
aF0.4609909062890553
aF0.551819255163325
aF0.7446205120210864
aF0.7524354955739487
aF0.7524354196829579
aF0.5635405048524884
aF0.7587334283391206
aF0.7748743365992377
aF0.7748741848172561
aF0.5731919036591749
aF0.7521745494611389
aF0.779210064793371
aF0.7792103683573341
aF0.5697163239545185
aF0.7547662078234572
aF0.7819961748468099
aF0.7819962507378008
aI3
aa(lp167
F0.5498243086887458
aF0.6020944992644857
aF0.4559763711279089
aF0.45597656085538585
aF0.5461768358899775
aF0.7386913955573275
aF0.775605166840429
aF0.7756049391674568
aF0.5403254887190183
aF0.7560013147256202
aF0.7926471718385278
aF0.7926473995115002
aF0.553145829682123
aF0.7589371577038639
aF0.797951420856969
aF0.7979510414020151
aF0.5591125311590646
aF0.763112869743942
aF0.8070082516964059
aF0.8070084793693783
aI3
aa(lp168
F0.5944890785646963
aF0.6114004897130203
aF0.3932925376930892
aF0.3932920823471446
aF0.5395227138185694
aF0.7322830274868062
aF0.7697834171558733
aF0.7697836448288456
aF0.5186273817092172
aF0.7532279543586319
aF0.7663372072646479
aF0.7663373590466296
aF0.5462525371532784
aF0.7610867700176485
aF0.7921025780887055
aF0.792102426306724
aF0.5508810907353283
aF0.7693098055141561
aF0.8012507057900483
aF0.8012513129179745
aI3
aa(lp169
F0.5644953273529608
aF0.6089070817246379
aF0.46434498451747624
aF0.4643451362994578
aF0.5243144628306375
aF0.7267007707963978
aF0.7739684258423216
aF0.773968653515294
aF0.5149446575452324
aF0.7529664150316634
aF0.7769143623223389
aF0.7769143623223389
aF0.5520312945915584
aF0.7590648063503523
aF0.7876030771364735
aF0.7876028494635011
aF0.5570051901271433
aF0.7637509801671505
aF0.7766838054923556
aF0.7766837296013649
aI3
aa(lp170
F0.6210782460936481
aF0.5949104398908492
aF0.4026724744257631
aF0.4026722088072954
aF0.5132291416986976
aF0.7262456714974503
aF0.7465968221984495
aF0.7465970498714218
aF0.5040878441865249
aF0.7513467684792288
aF0.7630782204476718
aF0.7630782204476718
aF0.5229168163989759
aF0.7681472693719246
aF0.7689096841790471
aF0.7689096841790471
aF0.5468837225235783
aF0.7710502894966569
aF0.760369291531854
aF0.7603690638588816
aI3
aa(lp171
F0.6173031625938867
aF0.5974458345698795
aF0.39784982963479865
aF0.3978497537438079
aF0.5087887598282815
aF0.7254191996351311
aF0.6985670837369014
aF0.6985672355188829
aF0.4922949154565716
aF0.7504299863378838
aF0.695118141770008
aF0.6951182176609988
aF0.5328646833611363
aF0.7650018344498998
aF0.7503810505625996
aF0.750381278235572
aF0.5366480389788926
aF0.7768079871849961
aF0.7443428597723453
aF0.7443431633363083
aI3
aa(lp172
F0.6514915985933948
aF0.6217622281933881
aF0.2698081057596039
aF0.2698081057596039
aF0.47504030184780843
aF0.7041497439139913
aF0.634201999237883
aF0.6342021510198645
aF0.4475055325737637
aF0.7458309922967419
aF0.620482160306583
aF0.6204821982520784
aF0.4902194106952817
aF0.777679746996062
aF0.6700068753954653
aF0.6700066477224931
aF0.5262099162163068
aF0.7861350278970978
aF0.7101894854105766
aF0.7101897889745397
aI3
aa(lp173
F0.722497713967912
aF0.6431856572484425
aF0.0810876073986898
aF0.0810876073986898
aF0.4657698758148271
aF0.6963848433560623
aF0.5528024229488528
aF0.5528024608943483
aF0.42675826378741916
aF0.7442841821227063
aF0.5781280813723432
aF0.5781282331543247
aF0.4366140370322706
aF0.7896730089689213
aF0.5956725606203825
aF0.5956723708929057
aF0.4919576558935545
aF0.8077568265156717
aF0.6554205510769585
aF0.6554203234039861
aI3
aa(lp174
F0.722354507668314
aF0.6422428634700084
aF0.09809079415500571
aF0.09809128744644575
aF0.504831044659213
aF0.719091238069339
aF0.43819754050034726
aF0.4381975784458427
aF0.48620530852006516
aF0.7525769045214957
aF0.4314114060504811
aF0.4314114060504811
aF0.43256749145849654
aF0.7910541111645932
aF0.6023487290246116
aF0.6023485013516392
aF0.4607416802753406
aF0.8057823516358549
aF0.6160034914313195
aF0.6160037191042919
aI3
aa(lp175
F0.7280613583928319
aF0.6563535979220577
aF0.045426653761930856
aF0.04542558654487304
aF0.5082560050730205
aF0.7102487992788497
aF0.6987527131003441
aF0.6987528648823257
aF0.46748812373702997
aF0.7497629993926843
aF0.669066206564773
aF0.6690664342377454
aF0.4323470281302867
aF0.7911299072916327
aF0.6027129298893548
aF0.6027129678348502
aF0.46257680032334153
aF0.805059869403649
aF0.617709407067521
aF0.6177095588495025
aI3
aa(lp176
F0.679982366678269
aF0.6214641947862294
aF0.10902260678534959
aF0.10902260678534959
aF0.5079727419499419
aF0.7028825351227294
aF0.6686300610407724
aF0.6686300610407724
aF0.4602233068628321
aF0.7491676535427793
aF0.6675505116969565
aF0.667550663478938
aF0.43231048661822713
aF0.791142619032588
aF0.6027739083004449
aF0.602773528845491
aF0.4660543531937581
aF0.8121921806079487
aF0.6108017331959239
aF0.6108010881225023
aI3
aa(lp177
F0.6622492224271557
aF0.6250722137561671
aF0.423082521594586
aF0.423082521594586
aF0.33420411583736426
aF0.5345323241662508
aF0.8437229469969293
aF0.8437229469969293
aF0.24495577944559552
aF0.71480715369443
aF0.9822532231980818
aF0.9822532231980818
aF0.318521811775538
aF0.8415127977042318
aF0.9727318636040932
aF0.9727319394950841
aF0.3719523325957968
aF0.8762195312252576
aF0.9692589400841142
aF0.9692590159751049
aI3
aa(lp178
F0.6522662938272558
aF0.6233945011094135
aF0.4464578574460745
aF0.4464579333370653
aF0.33418385294282654
aF0.5345585350171908
aF0.8439796103277403
aF0.8439797621097218
aF0.23830992949218233
aF0.7161183602875955
aF0.9854854204953134
aF0.9854851169313503
aF0.30739099399462677
aF0.8489641925792571
aF0.9782646203957667
aF0.9782646203957667
aF0.3674789381443923
aF0.8840597535915337
aF0.9758588759881067
aF0.9758590277700883
aI3
aa(lp179
F0.6477090398310418
aF0.6284011056620236
aF0.47225794839841295
aF0.47225806223489913
aF0.3341710653108805
aF0.5345749108700446
aF0.844140651010171
aF0.8441411822471064
aF0.26445887235637916
aF0.7230919454846831
aF0.9853548121001846
aF0.9853551156641478
aF0.32199655667929583
aF0.8400714001163867
aF0.9817540122607447
aF0.981754239933717
aF0.3954785397369518
aF0.8793255218048255
aF0.9802471966388491
aF0.9802472725298399
aI3
aa(lp180
F0.6845991192112529
aF0.6147976265923338
aF0.48267387304619624
aF0.48267387304619624
aF0.4022367083567163
aF0.625328753764118
aF0.9712629175865959
aF0.9712630693685774
aF0.2655075340669485
aF0.7233322922524767
aF0.9852024988816933
aF0.9852022712087211
aF0.3224692816608515
aF0.8367164870870673
aF0.9586836064102018
aF0.9586836823011926
aF0.39671780167085985
aF0.8818599393873495
aF0.9528376474995879
aF0.9528374957176063
aI3
aa(lp181
F0.5571779559676492
aF0.6042507330672156
aF0.45282924763133936
aF0.45282936146782554
aF0.5333914806736213
aF0.7373548034277468
aF0.9595585536428805
aF0.959558705424862
aF0.553795949854622
aF0.757530840726506
aF0.9712588194730939
aF0.9712585918001215
aF0.5718608136264256
aF0.7516224235304818
aF0.9762634508599438
aF0.976263374968953
aF0.5613680872959751
aF0.7526758474007225
aF0.9813819187329605
aF0.9813818428419697
aI3
aa(lp182
F0.553884628477346
aF0.6044901691431199
aF0.464058533972785
aF0.4640584960272896
aF0.540782124810529
aF0.7427878584302858
aF0.9644438085012367
aF0.9644435808282644
aF0.5565205502600356
aF0.7578353343542547
aF0.9733082556790515
aF0.9733083315700424
aF0.5739360527692479
aF0.7510424835517047
aF0.9784248262772989
aF0.9784248262772989
aF0.562869173148067
aF0.7523694944436997
aF0.9789290460200274
aF0.9789288942380459
aI3
aa(lp183
F0.5515630092329633
aF0.6040010801666778
aF0.4666529433835189
aF0.4666528295470328
aF0.5425341062781327
aF0.744017671935842
aF0.9681828058348833
aF0.9681825022709202
aF0.5583606791134277
aF0.7580410938030013
aF0.9750822834794762
aF0.9750824352614578
aF0.5742878075115035
aF0.7509671807161052
aF0.9795882351659244
aF0.9795882351659244
aF0.5632177784142053
aF0.7523896435017512
aF0.9795205404021505
aF0.9795206162931412
aI3
aa(lp184
F0.5515288203416179
aF0.6037433828211175
aF0.4647649273149459
aF0.4647648134784597
aF0.5372923155451018
aF0.7395579568355252
aF0.9677315580037177
aF0.9677314062217361
aF0.5489693966776326
aF0.756708637732418
aF0.9729958883610097
aF0.9729958124700189
aF0.572983431107508
aF0.7513884705786612
aF0.9783784568819336
aF0.9783783809909429
aF0.5631009821793981
aF0.7525157743284241
aF0.9800148184250871
aF0.9800150460980595
aI3
aa(lp185
F0.7224882275940647
aF0.5029612818755119
aF0.35380531682647604
aF0.35380546860845763
aF0.2844000649841761
aF0.46973108228526456
aF0.96673768958849
aF0.9667376136974993
aF0.11761343848228853
aF0.462568770423673
aF0.9681394720791491
aF0.9681397756431122
aF0.2193975341081186
aF0.9350543633352982
aF0.9787790854222502
aF0.9787788577492779
aF0.1720954574388969
aF0.9430095605526028
aF0.9811850575028827
aF0.9811851333938734
aI3
aa(lp186
F0.7314417707950528
aF0.5063960221478576
aF0.33794220247912143
aF0.33794220247912143
aF0.2866282055006681
aF0.4608317631971872
aF0.971523603139918
aF0.9715236790309089
aF0.10879854812145162
aF0.43572268343181636
aF0.9727993306948949
aF0.9727991030219225
aF0.2022561688303438
aF0.9958482834267753
aF0.9741636989271003
aF0.9741636230361095
aF0.1653323748774795
aF0.004286992264286296
aF0.9828424408504816
aF0.9828428961964263
aI3
aa(lp187
F0.7349858800643817
aF0.5049102392990272
aF0.3274089883050909
aF0.3274089883050909
aF0.2975130605804681
aF0.4568737112618471
aF0.972331766300712
aF0.972331766300712
aF0.10533051957037765
aF0.4213051928518557
aF0.9721387755111639
aF0.9721386237291822
aF0.197482170164468
aF0.0032220898816905305
aF0.9718692866029115
aF0.9718695142758838
aF0.18681011342280926
aF0.021105877749498028
aF0.9835486065196701
aF0.9835482270647162
aI3
aa(lp188
F0.7625671705157733
aF0.5323409670643515
aF0.2761673533863443
aF0.2761669929041381
aF0.3635639875486272
aF0.5510697655405692
aF0.8846799486819384
aF0.8846800245729293
aF0.04561107361270812
aF0.39386791978502594
aF0.9354126206710329
aF0.9354125447800422
aF0.17159469073624878
aF0.03927896207415096
aF0.9164262125982131
aF0.9164261367072223
aF0.2395009247559556
aF0.04701214019793478
aF0.9157743089874307
aF0.9157740813144584
aI3
aa(lp189
F0.7748678099740308
aF0.5999640019940032
aF0.19425813114874504
aF0.19425839676721277
aF0.36253391913079847
aF0.5219543268526347
aF0.8943644739060995
aF0.8943644739060995
aF0.15956741062677332
aF0.7104811585198639
aF0.8903606170146381
aF0.8903607687966196
aF0.23417578674230285
aF0.8899309462565813
aF0.9051282449101135
aF0.9051281690191226
aF0.2630909751931026
aF0.9319962979164065
aF0.9075028740115545
aF0.907502722229573
aI3
aa(lp190
F0.7519843995247647
aF0.6127399277547552
aF0.21901050902789893
aF0.21901039519141274
aF0.362539041772676
aF0.5217464519425201
aF0.894433686489689
aF0.8944336105986982
aF0.20632273065293555
aF0.7231402121548178
aF0.8220758007874356
aF0.8220758007874356
aF0.2570839566273102
aF0.8610946844361906
aF0.8485446052050136
aF0.848544832877986
aF0.2752316933610433
aF0.9034934631639987
aF0.856701520675806
aF0.8567013688938244
aI3
aa(lp191
F0.7236447304025294
aF0.6565141547994222
aF0.2975508922393709
aF0.2975508922393709
aF0.45152707206607645
aF0.6497104420988171
aF0.7856587499527432
aF0.7856587499527432
aF0.35581881864830045
aF0.7257487372898366
aF0.7854583977370895
aF0.785458549519071
aF0.43273517260262034
aF0.7977632542043153
aF0.7825232377777627
aF0.7825232377777627
aF0.4767150642322956
aF0.8204260305706422
aF0.7829061078262373
aF0.782906183717228
aI3
aa(lp192
F0.7536178772102686
aF0.6585437739704131
aF0.12644363036414102
aF0.12644325090918712
aF0.43462736267568625
aF0.6540166676702855
aF0.7557562576574182
aF0.7557567130033628
aF0.3764343027291591
aF0.7312843020481687
aF0.7455516514734559
aF0.7455518032554375
aF0.41275174663845554
aF0.8049075182396624
aF0.7552628903263708
aF0.7552628144353801
aF0.46381363374554463
aF0.8292904018574663
aF0.7630870238026021
aF0.7630870238026021
aI3
aa(lp193
F0.7862560879411562
aF0.6590872673008691
aF0.04560513039949283
aF0.04560619287336372
aF0.4460883821574722
aF0.6702729922136083
aF0.7680547721679338
aF0.7680547721679338
aF0.40617431241322866
aF0.7358588212447847
aF0.7714578000854065
aF0.7714578759763974
aF0.43905818228126425
aF0.7963166011653589
aF0.7717264541927604
aF0.7717262265197881
aF0.47542529684402485
aF0.8163796557515974
aF0.7875171685349128
aF0.7875175479898667
aI3
aa(lp194
F0.772650958242417
aF0.6348184004103352
aF0.06461002741494098
aF0.06460927799140706
aF0.46751331954596825
aF0.6966148310036149
aF0.7665946295053667
aF0.7665945536143759
aF0.4402506953648531
aF0.7405590348948767
aF0.7539966491452412
aF0.7539966491452412
aF0.46573530746852776
aF0.7863799470970858
aF0.7645730452930245
aF0.7645730452930245
aF0.508884989604588
aF0.7989514604741774
aF0.8012470630224909
aF0.8012472906954633
aI3
aa(lp195
F0.7837308152230209
aF0.6330086279532542
aF0.05686740560599223
aF0.05686740560599223
aF0.45703482277628854
aF0.6966056671664784
aF0.6997436976579222
aF0.6997438494399038
aF0.4196931540554533
aF0.7382730844161597
aF0.6916129645789483
aF0.6916133440339022
aF0.4363234883740773
aF0.7961156038762836
aF0.6912876199014834
aF0.6912875440104925
aF0.508063469629417
aF0.7989689912930471
aF0.7479727258612532
aF0.7479728776432347
aI3
aa(lp196
F0.7624936321457094
aF0.6237650009263913
aF0.11616795226731534
aF0.11616753486686607
aF0.48899009048116554
aF0.708035476478307
aF0.6871851047220106
aF0.6871853323949829
aF0.44290661442361257
aF0.7453559526399675
aF0.6976774136520117
aF0.6976772618700302
aF0.46971491718843567
aF0.7858205166585663
aF0.7172153974458056
aF0.7172158527917503
aF0.5056976818284015
aF0.8021707752757244
aF0.7462235903058037
aF0.7462239697607576
aI3
aa(lp197
F0.7387829340059733
aF0.6424472758536687
aF0.13446644645422878
aF0.13446644645422878
aF0.47877095117246943
aF0.6953483811222606
aF0.772362193022507
aF0.7723617376765624
aF0.4368144271934197
aF0.7452841218171962
aF0.7683601575148242
aF0.7683602334058149
aF0.4678114193577439
aF0.7866762444978305
aF0.8111959924585223
aF0.8111962201314946
aF0.5007113781158244
aF0.8066982230853105
aF0.825241745249718
aF0.8252412140127826
aI3
aa(lp198
F0.758693770237459
aF0.6312766817072158
aF0.10867693280873
aF0.10867670513575768
aF0.48113582828159557
aF0.7086954435068595
aF0.7383967247539045
aF0.7383966488629137
aF0.4600176802233193
aF0.7478070798601127
aF0.7259293527889079
aF0.7259297322438618
aF0.4817656855595569
aF0.7820032377679325
aF0.7340252519031147
aF0.7340254795760871
aF0.5163424557588755
aF0.7917110615262624
aF0.7647157203556869
aF0.7647160239196501
aI3
aa(lp199
F0.7418546218577096
aF0.5943002383794994
aF0.22386406042485768
aF0.22386406042485768
aF0.4968404063492151
aF0.7172685831165734
aF0.7143999934699263
aF0.7144001452519079
aF0.468499788589595
aF0.7484765332625124
aF0.7148674060821275
aF0.7148677855370814
aF0.5134096104747674
aF0.7714532327121922
aF0.7562797537118042
aF0.7562796019298227
aF0.5337976492562647
aF0.7812386550085926
aF0.7918860610920161
aF0.7918861369830069
aI3
aa(lp200
F0.6990420854481804
aF0.6321089592303296
aF0.2666513251344579
aF0.2666519702078795
aF0.4588627331801655
aF0.6944439692124125
aF0.7456833223424556
aF0.7456833982334464
aF0.405220438550141
aF0.7396477169048679
aF0.7289340288957873
aF0.7289340288957873
aF0.4396606049660594
aF0.7952022178567759
aF0.7203376286974
aF0.7203380081523538
aF0.49355652728726374
aF0.813868859239953
aF0.7374431544547799
aF0.7374432303457708
aI3
aa(lp201
F0.7017841028359774
aF0.6435637651372457
aF0.27588591164704435
aF0.2758857408923151
aF0.4564056485172442
aF0.6930024008698382
aF0.7441126823973159
aF0.7441123788333527
aF0.3740161121990115
aF0.731299252573352
aF0.7309100026226719
aF0.7309100026226719
aF0.39834118585459033
aF0.8099542501536464
aF0.7242959509943947
aF0.7242955715394408
aF0.4730452794822385
aF0.8321322538436317
aF0.7346838339210856
aF0.7346840615940579
aI3
aa(lp202
F0.7149513415179279
aF0.6503460291465822
aF0.2606638674715385
aF0.2606643417902309
aF0.45609108036046975
aF0.6928179288440047
aF0.7439115712717543
aF0.743912026617699
aF0.29001700385736995
aF0.7219600693027258
aF0.7263248207418516
aF0.7263250484148239
aF0.33396634936325703
aF0.8335401455590482
aF0.7093228102958927
aF0.709322734404902
aF0.4284648244970422
aF0.873981430016226
aF0.709383523088515
aF0.7093837507614874
aI3
aa(lp203
F0.7273239256354429
aF0.655263917130973
aF0.25364260375949466
aF0.2536432867784117
aF0.45596422856938446
aF0.692743517727547
aF0.7438305196936035
aF0.7438306714755851
aF0.28175274058012223
aF0.7195367181852054
aF0.6990310812545175
aF0.6990307776905544
aF0.33229481234587793
aF0.8254292200286673
aF0.6751198032261554
aF0.6751199550081369
aF0.42786388168656725
aF0.8735582997971437
aF0.68057560655318
aF0.6805754547711984
aI3
aa(lp204
F0.7459826364100838
aF0.6668748213195453
aF0.29808599961534604
aF0.29808599961534604
aF0.4496400425803835
aF0.6889469001591524
aF0.7464403349754654
aF0.7464402590844746
aF0.315554436090626
aF0.729879275217654
aF0.7112094603266318
aF0.7112094603266318
aF0.34186830905053095
aF0.8244115218423355
aF0.6992379600953782
aF0.6992379600953782
aF0.4241142975597072
aF0.8806030327980856
aF0.690409485247192
aF0.6904097129201643
aI3
aa(lp205
F0.7669197465098593
aF0.676895581578348
aF0.21730131110634632
aF0.21730131110634632
aF0.49860206391814293
aF0.6776363155938359
aF0.7614011813334614
aF0.7614014090064336
aF0.39722501910772406
aF0.7422156783053157
aF0.7614486890936883
aF0.7614487649846791
aF0.4056096075508502
aF0.80502019738822
aF0.7407415286959699
aF0.740741452804979
aF0.46184008853036485
aF0.8418444792794266
aF0.7344491030866095
aF0.7344491030866095
aI3
aa(lp206
F0.799757778219465
aF0.677802421999901
aF0.1286449529017669
aF0.12864400426438216
aF0.5004178697089908
aF0.6754236947849579
aF0.7692757823185598
aF0.769275706427569
aF0.39271542465371856
aF0.7416296291017809
aF0.7641869119319464
aF0.7641872913869003
aF0.41244416045283266
aF0.8047260059624693
aF0.7071580197839527
aF0.7071577162199895
aF0.4538394705550796
aF0.8364290120140006
aF0.6856496781965917
aF0.6856496781965917
aI3
aa(lp207
F0.7975523860274587
aF0.6740987139769662
aF0.12489988428885813
aF0.12489910640620265
aF0.4959059226342712
aF0.6667225460465495
aF0.7386714501405206
aF0.7386714501405206
aF0.38377531415809807
aF0.7408666210804996
aF0.7385029721409936
aF0.7385028962500028
aF0.3674999220033424
aF0.8101560822436202
aF0.6233222288544651
aF0.6233224565274375
aF0.4395103787498145
aF0.8577104395389354
aF0.6231619850274375
aF0.623161643517979
aI3
aa(lp208
F0.687628156326172
aF0.5893947016538578
aF0.42199454835079375
aF0.42199458629628916
aF0.5292906350959456
aF0.7379190149986853
aF0.8171694482336431
aF0.8171692205606708
aF0.5572628779863297
aF0.757920635827889
aF0.826671227952011
aF0.8266715315159741
aF0.5738823219477771
aF0.7517355959704795
aF0.8389157080770928
aF0.8389153286221389
aF0.5631754691868467
aF0.7591435622260322
aF0.8328004879311989
aF0.8328006397131804
aI3
aa(lp209
F0.7184528759414304
aF0.5691717210341155
aF0.31187159809015513
aF0.31187142733542583
aF0.5482976096272664
aF0.7501998848538451
aF0.833586415031695
aF0.8335861114677319
aF0.5604455943575741
aF0.7584194103920293
aF0.837527889528737
aF0.8375279654197277
aF0.5730628889748525
aF0.7521206858304342
aF0.8427970010184479
aF0.8427974563643926
aF0.5641642529056922
aF0.7586316016022443
aF0.8355788571035785
aF0.8355788571035785
aI3
aa(lp210
F0.6922493105366211
aF0.5827289303153654
aF0.363211398005473
aF0.363211398005473
aF0.5377615115955863
aF0.7431025783690418
aF0.8403383605902157
aF0.8403385123721973
aF0.5450549393733074
aF0.7564022658026476
aF0.8435694195225856
aF0.8435693436315949
aF0.5528056103704656
aF0.7588400362084159
aF0.8455647454521187
aF0.8455647454521187
aF0.5573678731720709
aF0.7636825454662165
aF0.8520057656214223
aF0.8520063727493484
aI3
aa(lp211
F0.6305773696273388
aF0.6149999899192432
aF0.40897692875716185
aF0.4089770805391434
aF0.4980269619900279
aF0.7185654652852295
aF0.838640906799486
aF0.8386405273445321
aF0.47676052293577154
aF0.7480047948638369
aF0.8392537265500176
aF0.8392530435311006
aF0.5521663046641524
aF0.7592927828866493
aF0.8952961117088892
aF0.8952961875998801
aF0.5515304140524242
aF0.7677699583385245
aF0.9018121121770815
aF0.9018116568311367
aI3
aa(lp212
F0.6269443161168182
aF0.621418204845818
aF0.37296946159969785
aF0.3729696133816794
aF0.4836824643136348
aF0.7091443576900586
aF0.8355009170560496
aF0.8355004617101048
aF0.4443623554087146
aF0.7453021269547583
aF0.8353793396888233
aF0.8353797191437772
aF0.5603375635322018
aF0.7566140206396657
aF0.9319620849933333
aF0.9319620091023425
aF0.5591708913309728
aF0.7624801475810787
aF0.9340506809505325
aF0.934051515751431
aI3
aa(lp213
F0.6375067862677937
aF0.6250013884890236
aF0.36972094773944897
aF0.36972106157593515
aF0.4735031298296017
aF0.7034897579126912
aF0.8180383241870595
aF0.8180383241870595
aF0.44129988831235784
aF0.7453307188855338
aF0.8191281947056211
aF0.8191281947056211
aF0.568402764740639
aF0.7538811481162574
aF0.9327156825317581
aF0.9327157584227488
aF0.5617083824986233
aF0.7607528876037211
aF0.9320957290280932
aF0.9320959567010655
aI3
aa(lp214
F0.6437627842015807
aF0.6293118260104802
aF0.37003661631558976
aF0.37003646453360817
aF0.4541249345168908
aF0.6945027278120223
aF0.7808188779068721
aF0.7808186502338997
aF0.4066669208343681
aF0.7416980827754626
aF0.7830714742951423
aF0.7830714742951423
aF0.5686758964164487
aF0.7537921279840749
aF0.8744263169179337
aF0.8744260892449615
aF0.5659379771421537
aF0.7575934507938977
aF0.8648538067961609
aF0.8648533514502162
aI3
aa(lp215
F0.6372988449530622
aF0.6174491439736282
aF0.3795486413177126
aF0.37954848953573106
aF0.44568892992751263
aF0.6879085406505812
aF0.7753842481662745
aF0.7753843999482561
aF0.3936649347848365
aF0.7396300343040165
aF0.7815717924263799
aF0.7815718683173707
aF0.5663923744494365
aF0.7544929623111613
aF0.8082848899432721
aF0.8082848899432721
aF0.5651959150343272
aF0.7583992803067254
aF0.8054336654197456
aF0.8054337413107364
aI3
aa(lp216
F0.6471299156804154
aF0.6172867562261112
aF0.35520668191668575
aF0.35520668191668575
aF0.4459857395924451
aF0.6846992624325645
aF0.7663824382951516
aF0.7663823624041608
aF0.3868597896417804
aF0.7390483298597038
aF0.7705389878600583
aF0.7705389878600583
aF0.5579023734201198
aF0.757388260527582
aF0.7942861895663585
aF0.7942858101114048
aF0.5608633742618065
aF0.7618285665070073
aF0.7941400235181203
aF0.794139795845148
aI3
aa(lp217
F0.6298670299536575
aF0.6212373376420465
aF0.37534602592140376
aF0.37534610181239453
aF0.4486023471179816
aF0.6901561472062078
aF0.772286681486683
aF0.7722869091596553
aF0.3943082627136609
aF0.7405847239952551
aF0.7775183787179404
aF0.7775182269359588
aF0.5527579128827617
aF0.759173880676848
aF0.8159992850468384
aF0.815999057373866
aF0.5533727057990536
aF0.7675730591629512
aF0.8185543829243493
aF0.8185549900522756
aI3
aa(lp218
F0.6155597188627456
aF0.6192549416400672
aF0.3885416857794007
aF0.38854179961588686
aF0.44833441397504015
aF0.6906499129649566
aF0.7690470468723551
aF0.7690466674174012
aF0.39548138564910595
aF0.7408999751709465
aF0.773263322647004
aF0.773263322647004
aF0.548087050073353
aF0.7606137035266344
aF0.8313072567966525
aF0.8313072567966525
aF0.5503794133407909
aF0.7700186463407696
aF0.8312262052185017
aF0.8312256739815662
aI3
aa(lp219
F0.6103633109421999
aF0.6152528681868891
aF0.396671090766036
aF0.396671090766036
aF0.45322050363429495
aF0.6908526557468198
aF0.7547803754070048
aF0.7547803754070048
aF0.397490561684456
aF0.7411865016066286
aF0.77239467436656
aF0.7723949020395323
aF0.5365524163305124
aF0.76420384068187
aF0.9083998296315587
aF0.9084000573045311
aF0.5437843724057035
aF0.7748793694363568
aF0.9196489235215974
aF0.9196489235215974
aI3
aa(lp220
F0.6449437998000667
aF0.6123424771496774
aF0.33127221919064087
aF0.33127206740865933
aF0.4731216258189611
aF0.6863310135980283
aF0.7192646818697818
aF0.7192646818697818
aF0.40264238364791965
aF0.7413887131515564
aF0.718978572834549
aF0.718978572834549
aF0.49885895492192617
aF0.7764241874718845
aF0.8835765695670182
aF0.8835766454580091
aF0.5236532246279895
aF0.7885722860386783
aF0.8936032872685971
aF0.8936035149415693
aI3
aa(lp221
F0.6120945362238258
aF0.6187337887200214
aF0.3785480565498011
aF0.3785479047678196
aF0.43614609318313396
aF0.6329885737589411
aF0.7777144810381106
aF0.7777144810381106
aF0.27947111588787943
aF0.7215094855177296
aF0.7781938844268547
aF0.7781936567538823
aF0.5071234079266509
aF0.7736491195576036
aF0.9038107773102088
aF0.9038107773102088
aF0.5249662526049337
aF0.7883219785783451
aF0.9029362854234748
aF0.9029365889874379
aI3
aa(lp222
F0.6464597982318464
aF0.6082162555219603
aF0.34146229224986907
aF0.34146251992284143
aF0.45257808639735986
aF0.612851411620208
aF0.8412024554112131
aF0.8412023795202223
aF0.2727368339574623
aF0.7149490698471846
aF0.8437652182787926
aF0.8437655977337465
aF0.5413004982230376
aF0.7623676202145029
aF0.878417272340963
aF0.8784173482319537
aF0.5446329854645822
aF0.7735136351663174
aF0.8750055169595509
aF0.8750055169595509
aI3
aa(lp223
F0.6769146251580531
aF0.6296856555446784
aF0.4320726063076337
aF0.43207249247114754
aF0.4499465662921355
aF0.6166932033008632
aF0.8589557866658734
aF0.8589554831019102
aF0.2712114629883215
aF0.714816526231791
aF0.8431984643596632
aF0.8431984643596632
aF0.568390090945179
aF0.7538334696013012
aF0.856394313945137
aF0.8563946175091001
aF0.5601870716974892
aF0.7617910763575629
aF0.8550762392173061
aF0.8550764668902784
aI3
aa(lp224
F0.6782903011478845
aF0.6302307995041838
aF0.418759315413931
aF0.41875912568645407
aF0.45836075222166495
aF0.6153680422517683
aF0.8609655318836542
aF0.8609656077746449
aF0.27066795068511773
aF0.7147701947819212
aF0.8429969737791477
aF0.8429967461061755
aF0.5669028172534087
aF0.7543831101020102
aF0.8353706881158747
aF0.8353704604429023
aF0.5627530599321767
aF0.7599753464577058
aF0.834536722018216
aF0.8345375568191147
aI3
aa(lp225
F0.6969950777539275
aF0.6416575636900075
aF0.3821783779846537
aF0.3821784538756445
aF0.45307171934687485
aF0.6229941476739385
aF0.8624981504424143
aF0.8624983022243958
aF0.270435060207168
aF0.7147504251788235
aF0.8429103062676794
aF0.8429104580496609
aF0.5613788258711702
aF0.7561489416754309
aF0.8421434278058685
aF0.8421432001328961
aF0.5600208704276854
aF0.7623633134007762
aF0.8417197284043554
aF0.8417194248403923
aI3
aa(lp226
F0.6778305535257518
aF0.6308671170027351
aF0.4271475845701099
aF0.4271477742975868
aF0.4620042027979221
aF0.6109732044621929
aF0.8523213962520676
aF0.85232162392504
aF0.28073904564355384
aF0.7171059676960839
aF0.852029443610545
aF0.8520295195015357
aF0.5638099937607408
aF0.7553821391046107
aF0.8319478526498089
aF0.8319472455218827
aF0.5631139215933257
aF0.7597535740099051
aF0.8284876788162805
aF0.8284876788162805
aI3
aa(lp227
F0.6922660824455831
aF0.6174473795080926
aF0.4151231503727886
aF0.41512303653630245
aF0.4694201945257496
aF0.6271821540545225
aF0.8554123604154615
aF0.8554125121974431
aF0.3001054209344511
aF0.7194568239446638
aF0.8554289805424419
aF0.8554291323244234
aF0.5649972324204706
aF0.7549374178986522
aF0.8186295150052195
aF0.8186296667872011
aF0.5626403997563669
aF0.7598436945614538
aF0.8167027945313496
aF0.8167022632944142
aI3
aa(lp228
F0.6708358326877326
aF0.6072296536690996
aF0.2924340749954036
aF0.2924342457501328
aF0.472120395977628
aF0.6560941550837095
aF0.8313101406543021
aF0.8313103683272743
aF0.35288862954886957
aF0.7315551380215074
aF0.8385552258708977
aF0.8385552258708977
aF0.4848365386103946
aF0.7808045205958475
aF0.8405760511733321
aF0.8405762788463045
aF0.5149449990546909
aF0.793340953362452
aF0.8402146582752477
aF0.8402149618392107
aI3
aa(lp229
F0.7586115802944465
aF0.6700622049867225
aF0.07514352618018695
aF0.07514417125360857
aF0.32635911233866916
aF0.5079880301500883
aF0.012011203077397843
aF0.012011203077397843
aF0.2359013771178635
aF0.6929277051621651
aF0.9386352557034265
aF0.9386352557034265
aF0.28376609061996505
aF0.8644799538618213
aF0.9381741420434598
aF0.9381743697164322
aF0.2834706090473712
aF0.9825740005023325
aF0.06853080264424834
aF0.06853150937909995
aI4
aa(lp230
F0.783392796750096
aF0.66119115529271
aF0.05993146641315534
aF0.05993186958404385
aF0.3453550826763271
aF0.457890479783542
aF0.08094888815392161
aF0.08094829051236924
aF0.20490298097020992
aF0.6795451447666297
aF0.8447872422515988
aF0.8447873940335804
aF0.2471895358954051
aF0.8690902556605891
aF0.833891572705613
aF0.8338914968146222
aF0.26253569978632824
aF0.993968046184757
aF0.1256339493835314
aF0.12563452805233608
aI4
aa(lp231
F0.7679955771951271
aF0.6674114275425883
aF0.025549119445835863
aF0.025551009605824924
aF0.3410131693664453
aF0.4980004971014823
aF0.023328482651057008
aF0.02332744863630766
aF0.21671135351678647
aF0.6854022975983834
aF0.802128688662358
aF0.8021289922263212
aF0.19974449957230547
aF0.8941653979235215
aF0.6474019089913635
aF0.6474019089913635
aF0.2668713710622185
aF0.0013999092476172953
aF0.15853150808902858
aF0.15853181165299168
aI4
aa(lp232
F0.765467496510333
aF0.6615489433687325
aF0.04682979754723688
aF0.046828763532487536
aF0.3180469049279975
aF0.515424355327359
aF0.039810397907654005
aF0.03980918365180156
aF0.25816762305737584
aF0.7072870205545074
aF0.8668216601870323
aF0.8668215084050508
aF0.30337002368474486
aF0.8313203720242894
aF0.877189811456121
aF0.8771896596741394
aF0.29315490659855997
aF0.016359617240751557
aF0.20072465069095
aF0.20072440404522998
aI4
aa(lp233
F0.7672665683377143
aF0.6606885861790309
aF0.05182229586193616
aF0.05182136619729913
aF0.30883789367930314
aF0.5603066287828791
aF0.035654232540888176
aF0.03565151943796786
aF0.3506214241448746
aF0.7339785270845234
aF0.7232803018648138
aF0.7232803777558046
aF0.4069849799767184
aF0.8005146820749687
aF0.7225320166957435
aF0.722531864913762
aF0.3186924147228068
aF0.006304212744658784
aF0.17223788585583935
aF0.17223830325628864
aI4
aa(lp234
F0.7489706923899828
aF0.6688253146462764
aF0.12546255906723333
aF0.12546255906723333
aF0.40202345467263034
aF0.5052620619281457
aF0.1638606588388187
aF0.16386096240278183
aF0.38932199694657926
aF0.7470067903896119
aF0.43362396994111596
aF0.43362362843165747
aF0.42030775724426833
aF0.7981028663880464
aF0.4339757246833716
aF0.4339755349558947
aF0.32354738907584263
aF0.9400963710351062
aF0.1812202866060708
aF0.18121905337747068
aI4
aa(lp235
F0.7506852216536375
aF0.6581955007273593
aF0.07507808917338869
aF0.07507744409996708
aF0.4004109608460765
aF0.5017958212620928
aF0.1697111712088793
aF0.16971088661766387
aF0.3913108721418962
aF0.7448208832094878
aF0.4047506353717303
aF0.4047507871537118
aF0.40942753151490574
aF0.7910030934460428
aF0.3941502197253659
aF0.3941501817798705
aF0.2725849001939249
aF0.9855863036537851
aF0.19862746007904528
aF0.19862709959683908
aI4
aa(lp236
F0.7188055413755754
aF0.6534886561019482
aF0.365572366728574
aF0.3655725944015464
aF0.35393657029502645
aF0.5292680507272021
aF0.10938650408612971
aF0.10938650408612971
aF0.3664235221356438
aF0.7282348692294781
aF0.9415891607374755
aF0.9415887812825215
aF0.3981082005129021
aF0.8042940344429614
aF0.9406947854111577
aF0.9406945577381853
aF0.37445108141265515
aF0.9199068251399886
aF0.06784539790422447
aF0.06784575838643067
aI4
aa(lp237
F0.7412254096531699
aF0.6519529449853139
aF0.34759333566734024
aF0.3475937910132849
aF0.37184661644564315
aF0.5602618625846939
aF0.011372740472560323
aF0.011374864234505374
aF0.38919624557486027
aF0.7321270335552622
aF0.9255678136743489
aF0.9255675101103857
aF0.418938038697213
aF0.7969908546729253
aF0.9245410085691237
aF0.9245414639150683
aF0.3754961383011625
aF0.9047189508830805
aF0.05512356819033643
aF0.05512312707395253
aI4
aa(lp238
F0.7299927082171392
aF0.6260296544958214
aF0.43284460741132214
aF0.4328447591933037
aF0.36171387902994767
aF0.4976154611952787
aF0.22381370675247653
aF0.22381404826193502
aF0.3653454147206527
aF0.7272786237729286
aF0.9307377356391131
aF0.9307385704400116
aF0.3931751722758512
aF0.8029109211360338
aF0.9308183318713192
aF0.9308187113262731
aF0.33785352385639744
aF0.917971149529207
aF0.07582070623408525
aF0.07582134182113302
aI4
aa(lp239
F0.7096328249932206
aF0.6498402156930474
aF0.3287875481525718
aF0.3287878896620303
aF0.35666257468376933
aF0.5380433141328855
aF0.08047863911594008
aF0.08047894267990319
aF0.39162206314958103
aF0.7404381026010721
aF0.9374411868545267
aF0.9374409591815545
aF0.41427643458867935
aF0.794963806309247
aF0.9412062147980101
aF0.941205911234047
aF0.334229842883238
aF0.9536140743124693
aF0.17585564733171816
aF0.17585536274050273
aI4
aa(lp240
F0.693385929905502
aF0.622841473973241
aF0.42158450932762065
aF0.4215844334366299
aF0.40327599752992455
aF0.5140344817932685
aF0.152781722036478
aF0.15278156076812258
aF0.5530342699256794
aF0.7569926787381521
aF0.4044419108212457
aF0.4044416831482734
aF0.5696992105360982
aF0.7527448323113396
aF0.4069013481048811
aF0.40690127221389033
aF0.4073767672166094
aF0.9043721670007208
aF0.15087123274826078
aF0.150871716553327
aI4
aa(lp241
F0.6642422716269654
aF0.6342412019935999
aF0.4713398571374771
aF0.4713400848104494
aF0.3908220582702956
aF0.5144811014597933
aF0.2763694131492905
aF0.27636986849523515
aF0.5454295373037873
aF0.7561586557222504
aF0.4093490602304414
aF0.40934940173989987
aF0.543897487927458
aF0.7612040785166435
aF0.40966355249622505
aF0.40966355249622505
aF0.42515980979415924
aF0.8656698866517236
aF0.07392044800006231
aF0.07392012072016459
aI4
aa(lp242
F0.7224137785321115
aF0.6514408420659183
aF0.292702008138345
aF0.2927020840293358
aF0.34387790248633027
aF0.5198258146058798
aF0.061277174948003256
aF0.06127756863251792
aF0.41225173884571525
aF0.7384253407164079
aF0.8634061102560813
aF0.8634061102560813
aF0.4580478536666876
aF0.7854643033206026
aF0.8635931056573581
aF0.8635927262024042
aF0.3773201782645098
aF0.8821534098486877
aF0.06185525559750636
aF0.061854079287149304
aI4
aa(lp243
F0.7436047439960392
aF0.6557321835168204
aF0.2894400425999808
aF0.28943987184525155
aF0.3239481693981408
aF0.513632112503351
aF0.06256156830548953
aF0.06256311458442664
aF0.3497596439990959
aF0.7297419694425891
aF0.9278854486417157
aF0.9278852209687435
aF0.4025679725314619
aF0.8084684942816917
aF0.9282222528587882
aF0.9282222528587882
aF0.3438513785850534
aF0.9142567029310771
aF0.05347731710244718
aF0.053478673653907335
aI4
aa(lp244
F0.7415839945845956
aF0.6534227732355791
aF0.2894275964774932
aF0.2894273308590255
aF0.3151869339677839
aF0.535545936097048
aF0.04569410784299301
aF0.04569305011230904
aF0.36282503697142254
aF0.732904347028305
aF0.8413058189406526
aF0.8413057430496618
aF0.42226157080184584
aF0.7997848194439098
aF0.8353320596015686
aF0.835332287274541
aF0.3176379852969384
aF0.9577858779665223
aF0.2454338926874964
aF0.2454338926874964
aI4
aa(lp245
F0.7607715137829769
aF0.6689316189516085
aF0.2735421512061022
aF0.2735421512061022
aF0.3137861001145097
aF0.5547582242175446
aF0.03922932905038902
aF0.03922994566468909
aF0.3493872848528441
aF0.7350887743341089
aF0.8766842256755584
aF0.8766844533485307
aF0.3916583769886683
aF0.8079360430903938
aF0.880923496420413
aF0.8809231169654591
aF0.36396173223129424
aF0.9131279003342463
aF0.01988059960064438
aF0.019878168717346024
aI4
aa(lp246
F0.7819296943388885
aF0.6776312308974537
aF0.052702432141109236
aF0.052702432141109236
aF0.34117773897994724
aF0.5088560914611505
aF0.05021833977184483
aF0.05021833977184483
aF0.33766003977540915
aF0.7239713892585653
aF0.8803172791860789
aF0.8803175068590513
aF0.37449020321840115
aF0.8171581455349973
aF0.8805460146322837
aF0.8805458628503021
aF0.3218736891652264
aF0.918975301173685
aF0.06738364865721007
aF0.06738472536064173
aI4
aa(lp247
F0.7655808017595644
aF0.6653225849396691
aF0.039430304995123185
aF0.03942969075241658
aF0.310784175056046
aF0.5560541909511245
aF0.02419984877760831
aF0.024197849524320005
aF0.35420898100642384
aF0.7267859204880507
aF0.9012166714634379
aF0.9012165196814563
aF0.3975801889445647
aF0.8073057494392355
aF0.9027395759753783
aF0.9027394241933968
aF0.3161627972454495
aF0.9285392735589953
aF0.08728282613523754
aF0.08728282613523754
aI4
aa(lp248
F0.7684987344639846
aF0.6667938835778807
aF0.04079701873326235
aF0.04079701873326235
aF0.3178303499858127
aF0.5328789654127566
aF0.022792018723621743
aF0.022793078825899173
aF0.11154034732265014
aF0.6466060736891771
aF0.954063742346596
aF0.954063742346596
aF0.1789853348731565
aF0.9232502786297005
aF0.9466333313305206
aF0.9466332554395299
aF0.275901146763443
aF0.9018731905108901
aF0.1199145861319089
aF0.11991479483213355
aI4
aa(lp249
F0.7601593011603714
aF0.648370709979493
aF0.13647980598044543
aF0.13647980598044543
aF0.3259148464786552
aF0.4757116907862662
aF0.07375617246414966
aF0.07375649974404738
aF0.35120593655584614
aF0.7313842125375278
aF0.8588647174769398
aF0.8588647933679306
aF0.4109441370746117
aF0.8030782987161945
aF0.857531919896898
aF0.8575317681149165
aF0.28302127746372285
aF0.8896865013752856
aF0.08212620406660716
aF0.08212561591142864
aI4
aa(lp250
F0.7603232257004517
aF0.6484968882380351
aF0.13655308821841536
aF0.13655326845951846
aF0.3140420993991513
aF0.5062597480159485
aF0.07129233350304912
aF0.07129165522731903
aF0.3726578531915637
aF0.734216578149846
aF0.8540586928129558
aF0.8540588445949373
aF0.41944810204623145
aF0.8008615039028238
aF0.8565404041023845
aF0.8565405558843661
aF0.2949673921585613
aF0.8767078138599228
aF0.12831575675652
aF0.1283170848488586
aI4
aa(lp251
F0.7659263334405764
aF0.6677858926638343
aF0.017716265620445627
aF0.017716265620445627
aF0.31592983087650894
aF0.5228040759047816
aF0.06207937117964741
aF0.06207898223831967
aF0.4067485036494544
aF0.7390545339481999
aF0.8443408514438432
aF0.8443410032258247
aF0.4432887255621794
aF0.7910525553992823
aF0.8400779027098658
aF0.8400775232549119
aF0.2764873856944548
aF0.8992281238638119
aF0.264168133970709
aF0.26416851342566283
aI4
aa(lp252
F0.7780760257181766
aF0.6743536128422416
aF0.016672271205809178
aF0.016673720249414343
aF0.3070401878897558
aF0.5378450773785998
aF0.04883018920040437
aF0.04883068249184443
aF0.39057279431108555
aF0.7376854604745662
aF0.8904436417585491
aF0.8904437935405307
aF0.4238462505802796
aF0.7932026420317593
aF0.8889561783393019
aF0.8889561024483111
aF0.31996730747688507
aF0.8572856776635515
aF0.09155158053000935
aF0.09155131491154163
aI4
aa(lp253
F0.7784182181955942
aF0.6747915797500209
aF0.01962249789839887
aF0.019624959612412226
aF0.31946657871973233
aF0.5437870763380431
aF0.009482270990551
aF0.009482270990551
aF0.3776178227303408
aF0.7356341080210914
aF0.899660754370509
aF0.8996609820434813
aF0.40406856509211375
aF0.7997420358978587
aF0.8986076909824746
aF0.8986076909824746
aF0.30552122970933576
aF0.8654070761506597
aF0.04745959790695514
aF0.04745959790695514
aI4
aa(lp254
F0.7652190294065261
aF0.6639404771883693
aF0.024919043981276034
aF0.024917104017824272
aF0.30910083698960095
aF0.5485051053982202
aF0.0475842536024948
aF0.0475842536024948
aF0.3880827350126712
aF0.7355754063397246
aF0.8906559847507457
aF0.8906560606417365
aF0.4158878659413623
aF0.797853754210818
aF0.8948637607344275
aF0.8948638366254182
aF0.2950091322034892
aF0.8772070627427553
aF0.08184492359566266
aF0.08184433544048413
aI4
aa(lp255
F0.763657344598298
aF0.6627074952339482
aF0.025363072681943793
aF0.025363072681943793
aF0.2878265811632945
aF0.5326267915083689
aF0.06535740189212194
aF0.06535703192354189
aF0.3924721940282753
aF0.7344951929497394
aF0.912412641659932
aF0.9124127934419136
aF0.4233348211934272
aF0.7958048682145433
aF0.9223927622931731
aF0.9223928381841638
aF0.30205631268888367
aF0.8736697457171011
aF0.10460886265269657
aF0.10460817014740571
aI4
aa(lp256
F0.7629696204398686
aF0.6621722360759915
aF0.025544388116879552
aF0.025544388116879552
aF0.2870161033272817
aF0.5258309572412438
aF0.06885074483180727
aF0.06885179781930431
aF0.3686284210362101
aF0.7317160458947043
aF0.9348797141337905
aF0.9348800176977535
aF0.40675749673186157
aF0.8014853088742706
aF0.9373655235367212
aF0.9373655235367212
aF0.3317348506704231
aF0.8597943302547063
aF0.07848269182892002
aF0.0784842333646702
aI4
aa(lp257
F0.7627872543890293
aF0.6620303578687322
aF0.025591642116606115
aF0.025591642116606115
aF0.2978408147968903
aF0.5237840728698511
aF0.07470402247984433
aF0.07470434975974206
aF0.3314529535851785
aF0.7283577177707998
aF0.9503581370488917
aF0.9503582129398825
aF0.3771662333897168
aF0.8123302832384168
aF0.9587009854470899
aF0.9587004542101545
aF0.3394417325659024
aF0.8563160564198774
aF0.05755111228509743
aF0.057551529685546714
aI4
aa(lp258
F0.6504327674900613
aF0.6291306647291194
aF0.17689377916731702
aF0.17689377916731702
aF0.3861778711441454
aF0.655715629794457
aF0.5021331958280487
aF0.5021333476100303
aF0.10205551975434732
aF0.7167670005857744
aF0.06160244373447742
aF0.06160205479314968
aF0.22544614093685728
aF0.964063504832681
aF0.032118087082404094
aF0.032117332915683236
aF0.292415291975186
aF0.06853311763526024
aF0.5442262476995079
aF0.5442266650999572
aI5
aa(lp259
F0.6372605958937101
aF0.6232047641460948
aF0.23300905762283083
aF0.23300873508612002
aF0.40653259378069123
aF0.6650654662629135
aF0.8697235798923985
aF0.8697238834563615
aF0.1658232567785788
aF0.7086890496908864
aF0.06172447170446139
aF0.06172447170446139
aF0.22015997294696898
aF0.9096202566859862
aF0.03050183190861982
aF0.03050262402083606
aF0.23971660695174646
aF0.015106694928503495
aF0.40159451879275354
aF0.40159455673824895
aI5
aa(lp260
F0.742851981258513
aF0.6623727211008791
aF0.15297620218672026
aF0.1529758891363833
aF0.44641171572368155
aF0.6834577427416808
aF0.7367493590170882
aF0.7367496625810513
aF0.10082535525295878
aF0.680624428491978
aF0.2382478696344737
aF0.2382478696344737
aF0.23058798323503366
aF0.9785258232722567
aF0.19079357461049914
aF0.19079330899203142
aF0.311494970075672
aF0.06979693030468492
aF0.47761349972662
aF0.4776136135631061
aI5
aa(lp261
F0.7335519197936329
aF0.6601256078366926
aF0.10564163468707173
aF0.10564163468707173
aF0.4284140154787164
aF0.6691515320701352
aF0.7395899588019057
aF0.7395901105838872
aF0.1283001991034105
aF0.6987695090410339
aF0.17285355151852522
aF0.17285341870929136
aF0.22332521541758674
aF0.9543574645126344
aF0.12489891667872571
aF0.12489910640620265
aF0.29952197099735045
aF0.06840053607437122
aF0.5024127402925792
aF0.5024127402925792
aI5
aa(lp262
F0.6846508009759728
aF0.6385693505750293
aF0.1397042054783746
aF0.1397038639689161
aF0.34711859957452895
aF0.6234626891646274
aF0.7579096645207416
aF0.7579093609567784
aF0.05742684553088551
aF0.6817597197685202
aF0.4750930460863991
aF0.4750927045769406
aF0.2231820850089796
aF0.010083204630445283
aF0.45273726775051654
aF0.4527375713144796
aF0.2906135449903798
aF0.03698295603915578
aF0.4579695341642048
aF0.4579694962187094
aI5
aa(lp263
F0.7173866075210006
aF0.638730827630657
aF0.10082729995959747
aF0.10082729995959747
aF0.3084418375711809
aF0.5945696608831349
aF0.8528104377966406
aF0.8528100583416867
aF0.028728019923200197
aF0.5273534490959221
aF0.4744242567301687
aF0.47442440851215023
aF0.23789161835101444
aF0.04081142885092948
aF0.3215722122043611
aF0.3215717189129211
aF0.32150091261852526
aF0.06111500095969094
aF0.3016059755496075
aF0.3016058996586167
aI5
aa(lp264
F0.7216167713469618
aF0.6470062943154183
aF0.07373056399794903
aF0.0737302367180513
aF0.3275172088579402
aF0.6124614931959649
aF0.8669120463570489
aF0.8669119704660581
aF0.04010682811763256
aF0.6125240842906089
aF0.4499733558118801
aF0.44997343170287085
aF0.23069421164937504
aF0.012359744626305923
aF0.411738867530038
aF0.4117393608214781
aF0.31838107193314036
aF0.05883311064898046
aF0.4537774296701187
aF0.45377796090705413
aI5
aa(lp265
F0.7562288308569922
aF0.644927146786571
aF0.12307111062496107
aF0.12307111062496107
aF0.37337707211116605
aF0.6125636140104304
aF0.6491851954926631
aF0.6491851954926631
aF0.03600194608788491
aF0.5972677943055146
aF0.3648442685630507
aF0.36484468596349995
aF0.24815080913009363
aF0.050977861866530354
aF0.2669672403563187
aF0.2669676957022633
aF0.3494924697660623
aF0.06977135504079277
aF0.26404471624695636
aF0.26404452651947946
aI5
aa(lp266
F0.7569252065883704
aF0.6391060137163154
aF0.12042822584386771
aF0.12042863375794315
aF0.36472083186655035
aF0.6098368507117797
aF0.6645177559234893
aF0.6645181353784431
aF0.031117732359058407
aF0.5679521480691274
aF0.3436635863283734
aF0.3436632068734195
aF0.2485973706925786
aF0.054721868005568226
aF0.2580652650835641
aF0.2580651702198256
aF0.3505815434292208
aF0.07126712852353018
aF0.2554283756907422
aF0.2554285654182192
aI5
aa(lp267
F0.7079236080989203
aF0.5884190660491646
aF0.14220018427406958
aF0.14220001351934033
aF0.3119882425429808
aF0.5628773127726211
aF0.7413831111320064
aF0.7413829593500249
aF0.04802296519062118
aF0.2739241156216676
aF0.3979307673764633
aF0.39793057764898637
aF0.25336706254472774
aF0.07012610747718415
aF0.26781701075280673
aF0.2678163467066374
aF0.3375223355726426
aF0.07291942717474703
aF0.25410121301676564
aF0.25410151658072877
aI5
aa(lp268
F0.7066956918681335
aF0.5873271749329734
aF0.1488076618452707
aF0.1488078231136261
aF0.31258030610753473
aF0.5628135690835545
aF0.7396036950712365
aF0.7396037709622273
aF0.0462723450176646
aF0.2775923635791614
aF0.41005613659151924
aF0.4100559468640423
aF0.25268988723401636
aF0.06730087561799916
aF0.24545305516266783
aF0.2454538709908187
aF0.33755386827931083
aF0.0715440547488788
aF0.24722852489191727
aF0.24722922688358195
aI5
aa(lp269
F0.7411838213902235
aF0.6604329663493432
aF0.050750990176993506
aF0.050750990176993506
aF0.3751805835615079
aF0.6448725052732109
aF0.8685904515090933
aF0.8685901479451302
aF0.06856820267314108
aF0.6600630736602916
aF0.3748376321741825
aF0.37483687326427473
aF0.21131019170312193
aF0.9880131837023768
aF0.3501722253704601
aF0.35017214947946934
aF0.25506698279265777
aF0.009594770213798594
aF0.3630283109902212
aF0.3630283109902212
aI5
aa(lp270
F0.7442835130175569
aF0.6154103135336316
aF0.10690632958926422
aF0.10690587424331956
aF0.33767590099248174
aF0.5939290365708569
aF0.6904506940551844
aF0.6904506181641936
aF0.05141121808082679
aF0.406646074843632
aF0.4218050106013259
aF0.42180444141889506
aF0.23302061202617677
aF0.05941086876177276
aF0.3490637995046532
aF0.3490636477226717
aF0.3068242969937403
aF0.06771869346772699
aF0.3475174826220577
aF0.34751676165764533
aI5
aa(lp271
F0.7323973142599376
aF0.6354607986745227
aF0.04621287968320317
aF0.04621287968320317
aF0.36643088356174924
aF0.6252566098910097
aF0.6267968219762413
aF0.6267966701942598
aF0.038878952203934676
aF0.5686916109105198
aF0.5069510215410988
aF0.5069506800316403
aF0.2402018729195282
aF0.02674696893050695
aF0.34677629326062515
aF0.3467763691516159
aF0.3192789761905293
aF0.049903852565041235
aF0.3234415590892028
aF0.32344209032613824
aI5
aa(lp272
F0.7212036966841576
aF0.6551862521882856
aF0.025001328788026994
aF0.025001328788026994
aF0.37195696194623423
aF0.6270323452387269
aF0.7285992737354658
aF0.7285991219534843
aF0.07164168344953449
aF0.6760753327772725
aF0.5914793936524256
aF0.5914797731073795
aF0.2302007115090939
aF0.0516926032176768
aF0.5422258750190881
aF0.5422256852916112
aF0.32853429991634586
aF0.07337739135859639
aF0.5160884486127418
aF0.5160884865582372
aI5
aa(lp273
F0.719422459239609
aF0.6504055846015951
aF0.151907789845801
aF0.1519073060407348
aF0.4213517137134094
aF0.6300896612340846
aF0.5994520457976091
aF0.5994525390890492
aF0.1394994610716296
aF0.6279450008074483
aF0.5238109640523214
aF0.5238114952892569
aF0.21370293977861127
aF0.9888111774704066
aF0.4324867434443088
aF0.43248700906277654
aF0.2892161452044382
aF0.015937207986081656
aF0.4124774007067934
aF0.4124772489248118
aI5
aa(lp274
F0.7330101340104693
aF0.6491883595141342
aF0.020186925284342336
aF0.020188120567447086
aF0.3816831513243324
aF0.569175169331009
aF0.8744137949044554
aF0.8744135672314831
aF0.09540411078585964
aF0.6665121382746176
aF0.8279828519456257
aF0.8279824724906718
aF0.23283801830236509
aF0.024976849516107364
aF0.6476238901393889
aF0.6476234347934442
aF0.3236444157075522
aF0.036969675115769644
aF0.5954322517980843
aF0.5954328589260105
aI5
aa(lp275
F0.7655520390740597
aF0.648360274968261
aF0.03318393810238458
aF0.03318393810238458
aF0.3119997210553359
aF0.5827270520133436
aF0.7691808426890966
aF0.7691808426890966
aF0.024750518549879818
aF0.35530995564136686
aF0.20388661087621662
aF0.2038867247127028
aF0.2504839448323269
aF0.06215535260677005
aF0.14963809901185807
aF0.14963875357165354
aF0.3420265797117983
aF0.07395310041463769
aF0.14167247626969534
aF0.14167230551496607
aI5
aa(lp276
F0.6832100864070447
aF0.6124030761058136
aF0.23545730098532652
aF0.23545709228510187
aF0.3876879880241399
aF0.6427867172826706
aF0.8394115798108357
aF0.8394118074838081
aF0.06666644559205027
aF0.38547546713798053
aF0.705269168914481
aF0.705269168914481
aF0.23170358079946907
aF0.06497508236912365
aF0.6859036094517346
aF0.6859032299967807
aF0.3255783458255459
aF0.07221197135871527
aF0.6867570795340231
aF0.6867563965151061
aI5
aa(lp277
F0.7455712313490767
aF0.6664246928804938
aF0.00619755594190436
aF0.006205346626426406
aF0.3999544765365473
aF0.614900202752744
aF0.7857872334001301
aF0.7857870057271579
aF0.11718980548539233
aF0.6977205058210061
aF0.19005636952608246
aF0.1900562367168486
aF0.2388025758588172
aF0.001738572793963761
aF0.20047804291641716
aF0.20047779627069712
aF0.3175974405351153
aF0.029830723449776927
aF0.1971325972881972
aF0.1971329577704034
aI5
aa(lp278
F0.7526375932823903
aF0.6564209606627469
aF0.01732324870934467
aF0.017319064032681304
aF0.38937918080813044
aF0.6365222290442903
aF0.5895605278961012
aF0.5895610591330367
aF0.0772034305996851
aF0.6723603549422073
aF0.3762594498864068
aF0.37625926015892985
aF0.24202572315539853
aF0.021566649900006167
aF0.34979398467242295
aF0.3497940605634137
aF0.32851308838442345
aF0.04445055364071228
aF0.34540756129645
aF0.34540725773248687
aI5
aa(lp279
F0.7611042198865473
aF0.6510995697667639
aF0.021333291902351274
aF0.021333291902351274
aF0.39822803238734045
aF0.6181864913536526
aF0.6126059656106781
aF0.6126060035561736
aF0.05401441187374329
aF0.596633165381508
aF0.37252644794103174
aF0.37252595464959165
aF0.23585959912744026
aF0.05486044495472871
aF0.3703880295483869
aF0.37038795365739613
aF0.3241117524287626
aF0.07187110697363625
aF0.36161692828922887
aF0.3616171939076966
aI5
aa(lp280
F0.7629246170823373
aF0.6522519839481005
aF0.01826022259742348
aF0.01825625373576514
aF0.40537738111906974
aF0.6164708237251362
aF0.5889373869708238
aF0.5889369695703746
aF0.059537990598719524
aF0.6068546003926752
aF0.34515378182328865
aF0.3451541612782425
aF0.23498973659114375
aF0.05143886169001082
aF0.3356929073489501
aF0.3356935144768763
aF0.32329577249591845
aF0.07040940854575813
aF0.32644369284789115
aF0.3264432375019465
aI5
aa(lp281
F0.7512431722178368
aF0.6405928984667579
aF0.05705086733301093
aF0.0570500183025516
aF0.3812054934283762
aF0.6141923485090107
aF0.5631579383679769
aF0.5631578624769862
aF0.05554314101922601
aF0.572309661720801
aF0.27808401830393603
aF0.27808365782172983
aF0.23126261619755395
aF0.05507278794692533
aF0.2615466125035196
aF0.2615469919584735
aF0.3191932193709503
aF0.07289423136580876
aF0.23831097299330553
aF0.2383107642930809
aI5
aa(lp282
F0.6507449830261216
aF0.6283127211168889
aF0.4685435018002831
aF0.4685435018002831
aF0.33225087146221755
aF0.5439114616719282
aF0.36606372294836564
aF0.3660640265123288
aF0.5428298534691942
aF0.7565582407614438
aF0.7030288668667168
aF0.7030288668667168
aF0.5667062216417986
aF0.7523453421358847
aF0.704507754604006
aF0.7045076787130153
aF0.5612817233484698
aF0.7607606095120327
aF0.6672162118825797
aF0.6672162118825797
aI6
aa(lp283
F0.7057939551157103
aF0.6499035941567208
aF0.3404307439577202
aF0.3404307439577202
aF0.3480598755331475
aF0.5299734290273612
aF0.12288986396623569
aF0.12289006318008648
aF0.5336454119287642
aF0.7550672484111255
aF0.7599547749402249
aF0.7599549267222065
aF0.5726870388430249
aF0.7509536531469991
aF0.7581383240759555
aF0.7581380964029831
aF0.5565081420830433
aF0.7646961265662986
aF0.7693626775030005
aF0.7693627533939913
aI6
aa(lp284
F0.6987470212760358
aF0.6472328099501427
aF0.3471030039759241
aF0.3471030039759241
aF0.34708251340841406
aF0.5349613762542073
aF0.11638585427458645
aF0.11638522817391253
aF0.5328409294810229
aF0.7550304602533459
aF0.7866247663743553
aF0.7866251458293092
aF0.5778553670969827
aF0.7497120196196293
aF0.7943426524634973
aF0.7943428042454789
aF0.5662800937285806
aF0.7549638279634429
aF0.8084110966609357
aF0.8084111725519265
aI6
aa(lp285
F0.7131584168607996
aF0.6138405842803812
aF0.37894249997436935
aF0.37894249997436935
aF0.33032771786491427
aF0.5303058789988377
aF0.2160915138496078
aF0.21609094466717696
aF0.5452576442096753
aF0.7564444422207723
aF0.8154136342710051
aF0.8154137101619959
aF0.5729213143315562
aF0.7513004180566112
aF0.8269546049115757
aF0.826954832584548
aF0.5659536486317494
aF0.7569683177301124
aF0.819842480710823
aF0.8198428601657769
aI6
aa(lp286
F0.7630247172991733
aF0.594875615412456
aF0.222530447016665
aF0.222530447016665
aF0.3363176419850339
aF0.5255870625696314
aF0.14076822562820257
aF0.14076856713766106
aF0.5503760361917013
aF0.7570653823073173
aF0.8226505232605967
aF0.8226503714786152
aF0.5716081345726306
aF0.7518009950317823
aF0.835018933373619
aF0.8350188574826282
aF0.5661585163613543
aF0.757344850880857
aF0.8313547645568795
aF0.8313546886658887
aI6
aa(lp287
F0.6957436353159996
aF0.6412969486745785
aF0.3162799349897152
aF0.3162798401259767
aF0.35061990632505907
aF0.6031652926852406
aF0.08206394499504772
aF0.08206483671418938
aF0.4901766840674737
aF0.7503179332900002
aF0.7571972757903093
aF0.7571974275722908
aF0.572258292690625
aF0.7509207164570015
aF0.7538365950456907
aF0.7538365950456907
aF0.5634931488742431
aF0.7591076657873942
aF0.745278595688637
aF0.7452785197976463
aI6
aa(lp288
F0.6972373976874814
aF0.6419740196351775
aF0.3145839800460533
aF0.3145841508007826
aF0.40717565609104794
aF0.5771269182514202
aF0.0284480675445943
aF0.02844721851413497
aF0.5184983290793993
aF0.7527180617643426
aF0.6689576065569699
aF0.6689573788839975
aF0.5774181970446065
aF0.7507651778714022
aF0.660991556927984
aF0.660991556927984
aF0.5668128864293369
aF0.7568032737979181
aF0.63637331637503
aF0.6363733543205254
aI6
aa(lp289
F0.6832372553817432
aF0.6402890593988046
aF0.38030743738900563
aF0.38030743738900563
aF0.44617398719506973
aF0.5704233010244643
aF0.05922819408799021
aF0.05922860200206564
aF0.5336746299602138
aF0.7544630233152994
aF0.6545560009100164
aF0.6545560009100164
aF0.5727193684050963
aF0.752208017388072
aF0.6657778499343658
aF0.6657779258253566
aF0.562655236445064
aF0.7597110181368264
aF0.6567263314642834
aF0.6567264832462649
aI6
aa(lp290
F0.7238639035838961
aF0.6564329798984114
aF0.22481899676181624
aF0.22481899676181624
aF0.44645740210012985
aF0.6054998039116817
aF0.04529606908273667
aF0.04529606908273667
aF0.5331586850594101
aF0.7536444251432733
aF0.6459175571027381
aF0.6459174053207566
aF0.5773600645456707
aF0.7506316666458761
aF0.6566483914167545
aF0.6566483914167545
aF0.5443645210847053
aF0.7714898121697472
aF0.6850603846532012
aF0.6850602328712195
aI6
aa(lp291
F0.7257530580173308
aF0.6591458077138804
aF0.21171359026460196
aF0.211713836910322
aF0.422354461374558
aF0.5757092081390717
aF0.030362069162728433
aF0.030361274678918724
aF0.5114146640001883
aF0.7506207383432041
aF0.7153543226789587
aF0.7153542467879679
aF0.5644313891932304
aF0.7548543931547411
aF0.7149244761071926
aF0.7149246278891741
aF0.5589903466639121
aF0.7623934800696104
aF0.7204473670700648
aF0.7204472152880833
aI6
aa(lp292
F0.6965729720632208
aF0.6430427260536861
aF0.32685756436609853
aF0.32685756436609853
aF0.4480601439343687
aF0.582977976087977
aF0.08352950437708168
aF0.08352979845467094
aF0.551801989962923
aF0.756463282159233
aF0.8198407352180351
aF0.8198405834360535
aF0.56598590230283
aF0.7531646992178185
aF0.8292183572754902
aF0.8292182054935087
aF0.5686119203112229
aF0.7550671156018917
aF0.8352103304523609
aF0.8352103304523609
aI6
aa(lp293
F0.7479016160028942
aF0.6572837937960226
aF0.33068345688418577
aF0.33068345688418577
aF0.4478925386812357
aF0.6367058283237298
aF0.09244562383324247
aF0.09244535821477474
aF0.5132962293345452
aF0.7514474568512434
aF0.7921880313443215
aF0.7921881072353122
aF0.5088555818456615
aF0.7733713395586088
aF0.8119743304599406
aF0.8119741027869682
aF0.5307915312205606
aF0.7828110973647634
aF0.8272524011593883
aF0.8272522493774067
aI6
aa(lp294
F0.7419223166214836
aF0.6610029646083284
aF0.07385097928437898
aF0.07385097928437898
aF0.36979816682256555
aF0.5535377974789103
aF0.031112903794770164
aF0.031113681677425637
aF0.33894851701683665
aF0.7236623801168653
aF0.9654637834172919
aF0.9654637075263012
aF0.3904516343443086
aF0.8106085443306382
aF0.9610791055341069
aF0.9610790296431161
aF0.45448078737264846
aF0.8372980397493984
aF0.9577579639956836
aF0.9577581157776651
aI6
aa(lp295
F0.729726254948518
aF0.6522284292818377
aF0.19343837563910965
aF0.19343837563910965
aF0.3893809642464137
aF0.4966764293569734
aF0.07425638895711462
aF0.07425671623701235
aF0.3074375341447213
aF0.71741410409139
aF0.9313131411311913
aF0.931312913458219
aF0.3424585891768016
aF0.8294481792272936
aF0.9263034250479593
aF0.9263035009389501
aF0.43799893377748145
aF0.8700299758538966
aF0.9246887683281683
aF0.9246886924371774
aI6
aa(lp296
F0.7320388811104935
aF0.6318677492025159
aF0.16253516576663926
aF0.16253516576663926
aF0.3468191716704147
aF0.5409083697894812
aF0.03187184690485782
aF0.03187184690485782
aF0.3314839550549113
aF0.72023641414743
aF0.9437922003087678
aF0.9437922003087678
aF0.37807798775292273
aF0.8114024210124183
aF0.9534946358067524
aF0.9534944840247708
aF0.3985578925787567
aF0.8361109149261549
aF0.9546531117809773
aF0.9546532635629589
aI6
aa(lp297
F0.6443447922098565
aF0.5863831953578084
aF0.2408540990670213
aF0.24085389036679666
aF0.3467782664263854
aF0.5563989305199202
aF0.04323483182771299
aF0.04323483182771299
aF0.281519755238434
aF0.7083063124516457
aF0.9592205351699556
aF0.9592206110609464
aF0.3376975299248534
aF0.8348455464914192
aF0.9577013493165633
aF0.9577011975345817
aF0.38601979021035504
aF0.8636679961514883
aF0.9565893945196852
aF0.9565893945196852
aI6
aa(lp298
F0.6630041860034144
aF0.5672432360947102
aF0.22407989440263007
aF0.22407966672965773
aF0.3091646802855929
aF0.5017541409516753
aF0.02949159001213185
aF0.029490771812387524
aF0.23015181873828525
aF0.6913540675228895
aF0.9499011973934179
aF0.9499009697204456
aF0.28297921488208416
aF0.8663491489646814
aF0.9480365557500045
aF0.9480364798590136
aF0.39834896468114506
aF0.9245786365867819
aF0.9479352412773159
aF0.9479353171683067
aI6
aa(lp299
F0.6743600585174776
aF0.5807033713123811
aF0.24969317968116866
aF0.24969348324513177
aF0.34804830215705385
aF0.5377411944701921
aF0.018716291878096848
aF0.018713710398613668
aF0.2471565233144167
aF0.6949579409474559
aF0.9298368336875884
aF0.9298366819056069
aF0.3016817147584039
aF0.853571762302357
aF0.9329830464922686
aF0.9329829706012779
aF0.4066855900180995
aF0.8947911191424854
aF0.9349370118318278
aF0.9349367082678646
aI6
aa(lp300
F0.6735115213495897
aF0.5555842027884238
aF0.32458045518780704
aF0.3245803034058255
aF0.3412237668658541
aF0.5264349214617892
aF0.04853714562588928
aF0.0485366475912623
aF0.22649349352783563
aF0.6865287665472478
aF0.9536412572009353
aF0.9536412572009353
aF0.29353255914141857
aF0.8617024953813309
aF0.9542156002191426
aF0.9542156002191426
aF0.3967218238933711
aF0.9209688057194394
aF0.9470214378573589
aF0.9470215137483498
aI6
aa(lp301
F0.7338184489532449
aF0.5639322307467426
aF0.33656360468614516
aF0.33656360468614516
aF0.3777054388791939
aF0.5508757454794586
aF0.04257445688508508
aF0.04257331852022341
aF0.226434848764712
aF0.6883554816680201
aF0.9479149024917874
aF0.9479148266007966
aF0.2828072269242337
aF0.8703557379318109
aF0.9397866738155091
aF0.9397866738155091
aF0.40139727810772174
aF0.923125248222394
aF0.9418833901087215
aF0.9418833901087215
aI6
aa(lp302
F0.7321022500877931
aF0.5773430178476603
aF0.3786086555059373
aF0.3786082760509834
aF0.42470533659588566
aF0.5532227265443219
aF0.03719762524874526
aF0.03719697543213672
aF0.26138595127604275
aF0.704481444461934
aF0.9667637201983269
aF0.9667637960893177
aF0.3129621326548861
aF0.8480616589714308
aF0.9416693775147278
aF0.9416693775147278
aF0.4055936324972914
aF0.9010864286094954
aF0.9385570120919345
aF0.9385570120919345
aI6
aa(lp303
F0.7142359930388553
aF0.5970493705476818
aF0.29698781903329413
aF0.29698774314230336
aF0.33316919039612575
aF0.543179312824772
aF0.04133563606756094
aF0.04133563606756094
aF0.39164585497518994
aF0.7311077416581239
aF0.9542951339774779
aF0.9542952857594594
aF0.42540269891014393
aF0.8003296977849476
aF0.954107455557284
aF0.9541073796662933
aF0.45672442862400686
aF0.8423001287880573
aF0.9412040898502683
aF0.9412040139592776
aI6
aa(lp304
F0.6928877814420358
aF0.6002989089363062
aF0.3863536346787871
aF0.38635352084230096
aF0.3379338165246405
aF0.5568666704120191
aF0.07408860820606541
aF0.07408893548596314
aF0.433654022773464
aF0.73886797492012
aF0.9097751261664362
aF0.9097752779484177
aF0.4593799682278124
aF0.7888596093297635
aF0.9099946788027568
aF0.9099945270207752
aF0.4853782485025674
aF0.8174408584483928
aF0.9119672374350564
aF0.9119670856530748
aI6
aa(lp305
F0.7036862346288352
aF0.6147087677285067
aF0.34755759101068384
aF0.3475577427926654
aF0.40668513467215484
aF0.5932269595287966
aF0.05157390464912003
aF0.051573435073614594
aF0.33143083136136675
aF0.7209285969015677
aF0.8614821218578795
aF0.8614819700758979
aF0.36130767250180884
aF0.8208470737874781
aF0.8679679936027328
aF0.8679681453847143
aF0.43390480455248964
aF0.8615288567944311
aF0.870961817297931
aF0.8709617414069402
aI6
aa(lp306
F0.7006553002391466
aF0.6078654683898371
aF0.3718776938063667
aF0.37187788353384366
aF0.41393135825361216
aF0.5880020260820922
aF0.05936893867357478
aF0.05936893867357478
aF0.30947598512976393
aF0.7168752401113714
aF0.8972663177204748
aF0.8972663177204748
aF0.34754305788594986
aF0.8254341149975725
aF0.8841326228564481
aF0.8841326987474389
aF0.4171436721112599
aF0.8698445741634262
aF0.8811352322846834
aF0.8811353081756742
aI6
aa(lp307
F0.7011441900017379
aF0.5981246605096403
aF0.37692474825706146
aF0.3769246723660707
aF0.4069903302915682
aF0.5725740659326712
aF0.06383574483834234
aF0.06383460647348067
aF0.26324397143051087
aF0.7015192862826379
aF0.9037496850626325
aF0.9037496091716417
aF0.3129047211203626
aF0.8449960044534613
aF0.9090780674161411
aF0.9090783709801041
aF0.4199919748316414
aF0.886282600711419
aF0.9069126697762746
aF0.9069125938852839
aI6
aa(lp308
F0.7017564026243435
aF0.607132883169484
aF0.3213226067356925
aF0.3213226067356925
aF0.4115692511656494
aF0.5695325068042738
aF0.06306196503955759
aF0.06306196503955759
aF0.19183438160352292
aF0.668562219553997
aF0.9686745035641334
aF0.9686744276731426
aF0.2505217385457343
aF0.895215843072374
aF0.9739552263754333
aF0.973955378157415
aF0.3828961549754313
aF0.942699735582752
aF0.9683215345660253
aF0.9683216863480069
aI6
aa(lp309
F0.71640708250303
aF0.6026892569592122
aF0.27737737831605513
aF0.27737737831605513
aF0.39869404101621225
aF0.5527800306791797
aF0.06561607633418848
aF0.06561533639702839
aF0.22695633370784246
aF0.6882858516839813
aF0.9724421118013032
aF0.9724420359103124
aF0.28490151470574115
aF0.8661901573390017
aF0.9692882340065544
aF0.9692883857885359
aF0.40150891375515607
aF0.920954044921733
aF0.9692947606317613
aF0.9692946088497798
aI6
aa(lp310
F0.7101000099324495
aF0.595276974403559
aF0.2842196341536016
aF0.2842196341536016
aF0.3981370770348931
aF0.5482583173825842
aF0.06758627760258712
aF0.06758734956283186
aF0.27194096513717425
aF0.705793485855998
aF0.9678257387232732
aF0.9678255110503008
aF0.31789208730681057
aF0.8431059772736327
aF0.9636501405196812
aF0.9636501405196812
aF0.41614346679830233
aF0.8980265797523205
aF0.9601870069375125
aF0.9601870069375125
aI6
aa(lp311
F0.7152001121856979
aF0.6017311237142671
aF0.2966739908136798
aF0.2966739908136798
aF0.4038377805891581
aF0.5631205860867466
aF0.04282413824474443
aF0.042823573805500524
aF0.2971235121248051
aF0.7132133290516075
aF0.9591446441791777
aF0.9591447200701685
aF0.3442993631036154
aF0.8301211805335121
aF0.9619636909226142
aF0.9619637668136051
aF0.4321201140678607
aF0.8738661516012344
aF0.965210535181066
aF0.9652106110720567
aI6
aa.