(lp0
(lp1
F0.5042066595909641
aF0.5306420038599337
aF0.9995248713837004
aF0.9990497427412206
aF0.4968787629280001
aF0.5265512010650772
aF0.999419705213066
aF0.9986079625828805
aF0.49327257984555417
aF0.5786180618929473
aF0.9994768122156752
aF0.9986580528531657
aF0.49366852034137976
aF0.9729057505578781
aF0.9994200834927582
aF0.9986132279240834
aF0.49307363555440187
aF0.076653010133759
aF0.9989760343873391
aF0.9979469333232405
aI1
aa(lp2
F0.503834800660964
aF0.5176391184317494
aF0.9995223417520808
aF0.9990446830025208
aF0.49607741300202773
aF0.5271386152468699
aF0.9994211568538264
aF0.9986114452768609
aF0.49320826345090657
aF0.6229928996493965
aF0.9994765089365281
aF0.9986572745080757
aF0.49396533107071033
aF0.9562289820468992
aF0.999419713742161
aF0.9986123435885748
aF0.4928559139373876
aF0.04288096065499489
aF0.9990071136431141
aF0.998009248087252
aI1
aa(lp3
F0.5039828360267272
aF0.5695418511124226
aF0.9995246198512163
aF0.9990492391986667
aF0.4961656792028977
aF0.49971980402931365
aF0.9997101061978889
aF0.9993045898016055
aF0.4931444011523958
aF0.5857422887228858
aF0.9997135927269309
aF0.9992653815628055
aF0.4943516741970371
aF0.9701961848565295
aF0.9997105797306707
aF0.9993078995131807
aF0.4949817071623517
aF0.985268604381116
aF0.9993887007311661
aF0.998774338232606
aI1
aa(lp4
F0.5027382774937762
aF0.5671189398238508
aF0.9995151477265867
aF0.9990302949568896
aF0.49652134759744965
aF0.5868150922455188
aF0.9994229557173137
aF0.99861575950745
aF0.49409949116528645
aF0.6908272199048762
aF0.9994792300353973
aF0.9986642539238552
aF0.49471135995511034
aF0.8564849972429911
aF0.9994206724232871
aF0.9986146357755598
aF0.4922792212970246
aF0.936542670438718
aF0.9989905318229383
aF0.9979760014994429
aI1
aa(lp5
F0.5033060638045729
aF0.5842074951911088
aF0.9995390840226911
aF0.9990781677356331
aF0.4963440444897579
aF0.5445227781342915
aF0.9996780557674196
aF0.9992277065112058
aF0.4935143600010948
aF0.6580833587673884
aF0.9997151068926476
aF0.9992692657491555
aF0.4943804258379191
aF0.9158019126807686
aF0.9997027604239785
aF0.9992892026347282
aF0.49350036768985917
aF0.9348642010875375
aF0.9994489444794695
aF0.9988951272960138
aI1
aa(lp6
F0.5035487948999819
aF0.5701505401179219
aF0.9995402029639504
aF0.999080405824009
aF0.49691068952795675
aF0.5377193809315381
aF0.9996916581391385
aF0.9992603353391233
aF0.49374223243112114
aF0.6516363354664516
aF0.9997352907842935
aF0.9993210364000136
aF0.4944854260501412
aF0.9118064243961882
aF0.9997259705808386
aF0.9993447059104428
aF0.4938446661468882
aF0.9410205299968116
aF0.9995043310975865
aF0.9990061762488337
aI1
aa(lp7
F0.5043164869504222
aF0.5381047286677569
aF0.999529468644701
aF0.999058936794205
aF0.49689916287757224
aF0.5104724604358332
aF0.9997085830662689
aF0.9993009363875464
aF0.49337806484175434
aF0.5924775749598675
aF0.9997458118980498
aF0.9993480225509389
aF0.4947384222005837
aF0.9000155937247875
aF0.9998880116215867
aF0.9997321986454341
aF0.4951075301405848
aF0.9357262813685202
aF0.9998164296578104
aF0.9996319396920132
aI1
aa(lp8
F0.5035305955692407
aF0.5096418810373627
aF0.9995117708093577
aF0.9990235416345197
aF0.49620756726485016
aF0.5131740005765092
aF0.9994255386633225
aF0.9986219560804096
aF0.4934717612220436
aF0.5930278496398992
aF0.9994814928014322
aF0.9986700583449278
aF0.4937300047890141
aF0.9141632970957644
aF0.9994375538241167
aF0.9986550055955742
aF0.4918643723510237
aF0.9104784621655574
aF0.9989828753365445
aF0.9979606502968834
aI1
aa(lp9
F0.504433224474439
aF0.5393597390538373
aF0.9995210356133012
aF0.9990420709761779
aF0.4965692652621428
aF0.4732205728414172
aF0.999433062001465
aF0.9986400034493257
aF0.4933285166857721
aF0.4734432025167946
aF0.9995161058572549
aF0.9987588382001646
aF0.49369363284480305
aF0.945915415527293
aF0.9994338486401186
aF0.9986461445811928
aF0.4956014782957593
aF0.901324506107353
aF0.9994845980034843
aF0.9989666122816903
aI1
aa(lp10
F0.5052343984316334
aF0.5810596933126245
aF0.9995828470967025
aF0.9991656939824453
aF0.49688522309434263
aF0.47018986883837127
aF0.9995609533355558
aF0.9989467949210397
aF0.49476321089679937
aF0.6978589562265426
aF0.9996910766445545
aF0.999207629624256
aF0.49461047211734704
aF0.9420982791978927
aF0.9995575412341945
aF0.9989419342127209
aF0.49822650359990417
aF0.8430898908578268
aF0.9997518647262654
aF0.9995024860925863
aI1
aa(lp11
F0.5036338761487418
aF0.6052970137406553
aF0.9995179375990354
aF0.9990358751865156
aF0.4968689019659389
aF0.5923583972621859
aF0.9994855813808996
aF0.9987659885655485
aF0.49499011611192295
aF0.7003265581021116
aF0.999545761103339
aF0.9988349031064057
aF0.49518168340163254
aF0.8377375207800877
aF0.999482939635021
aF0.9987635377216773
aF0.4925119944334774
aF0.9045389788631515
aF0.9991635691866673
aF0.9983229453916811
aI1
aa(lp12
F0.5038917165707527
aF0.5578559894958925
aF0.9995126288005202
aF0.9990252574206201
aF0.49828609327520207
aF0.6799614639062704
aF0.9994197731448496
aF0.9986081253823559
aF0.49564170193839047
aF0.7206488066978574
aF0.9994753042479899
aF0.998654184927992
aF0.4954009365977148
aF0.8301730853961081
aF0.9994189926122715
aF0.9986106186970058
aF0.49214174604330896
aF0.9302287015582085
aF0.9989800804955765
aF0.9979550465326547
aI1
aa(lp13
F0.5040513508915425
aF0.5932388527714453
aF0.9995136987557579
aF0.9990273973323398
aF0.4976709938330329
aF0.6591931465927413
aF0.9995012244118441
aF0.9988035141695824
aF0.49464741716163396
aF0.7392649906319207
aF0.9994766878680609
aF0.9986577332303777
aF0.49590375054891633
aF0.8943248216723441
aF0.9994191545491085
aF0.9986110066264917
aF0.49535940647697685
aF0.9341600600443248
aF0.998941743067093
aF0.9978781787814349
aI1
aa(lp14
F0.5025015588638568
aF0.6140981011370023
aF0.9996112516347567
aF0.9992225031820288
aF0.495551659446613
aF0.5570610472872658
aF0.9996387033061915
aF0.9991333062779492
aF0.49319898611144813
aF0.7097613895132003
aF0.9996684725466023
aF0.9991496519386318
aF0.49449942806406677
aF0.9527388107136646
aF0.999666188789944
aF0.9992017478268607
aF0.49540850705329165
aF0.9812070327231504
aF0.99936157971424
aF0.9987199588612649
aI1
aa(lp15
F0.504088958481645
aF0.5989442290311706
aF0.9995621112228261
aF0.9991242222764588
aF0.49695447527618747
aF0.5287934615489598
aF0.9999074675607771
aF0.9997780290952851
aF0.49335663469653124
aF0.672311543127176
aF0.9998835420233549
aF0.9997012915904436
aF0.49428758946209134
aF0.9464818333526521
aF0.9998504891183579
aF0.9996424704628303
aF0.49455572252060037
aF0.00929826906177051
aF0.9996283522574848
aF0.9992548427042479
aI1
aa(lp16
F0.5033799208262908
aF0.5389678574918131
aF0.9995181753181809
aF0.9990363508897157
aF0.4965965820604547
aF0.6358787743512618
aF0.9994194921635692
aF0.9986074515465472
aF0.49501343382723056
aF0.7212357151511051
aF0.9994751272530216
aF0.9986537312797844
aF0.49515783773157235
aF0.8505220977507517
aF0.9994188333019396
aF0.9986102380219309
aF0.49241063632665627
aF0.9580325142562378
aF0.9989691365617688
aF0.9979331018568223
aI1
aa(lp17
F0.5034513072121908
aF0.5207172777195002
aF0.9995159086387515
aF0.999031817192372
aF0.49632366871785927
aF0.5363309201822614
aF0.9995074286956135
aF0.998818398496896
aF0.49357160085727875
aF0.6505152312753046
aF0.9995654359179077
aF0.9988853673662356
aF0.4958108728689091
aF0.8522784359949803
aF0.9994845347511573
aF0.9987673521156908
aF0.4945525900530607
aF0.8585651970214034
aF0.9990774918440267
aF0.9981503577064316
aI1
aa(lp18
F0.5050858892658291
aF0.5691990487335654
aF0.9995409099096747
aF0.9990818195333514
aF0.49708845009207636
aF0.4458303805145032
aF0.9999810756259168
aF0.999954602975828
aF0.4931540259917356
aF0.37507406950175426
aF0.9999683575516283
aF0.999918838614634
aF0.49805352138035924
aF0.8106697637653234
aF0.9995187460550777
aF0.9988491628091747
aF0.4981941947670119
aF0.8217477718703365
aF0.9991273687753182
aF0.9982503619226085
aI1
aa(lp19
F0.5039566665165907
aF0.5716937915029306
aF0.9995601094654112
aF0.9991202185521539
aF0.49690912710775237
aF0.4859671343619154
aF0.9998548066519937
aF0.9996517048996568
aF0.49315525083926093
aF0.5794132865327815
aF0.9998522818618364
aF0.9996211109771755
aF0.49711777852025596
aF0.8267588708009659
aF0.9995814469463846
aF0.9989991010625758
aF0.4959659923010667
aF0.8638556535673853
aF0.9992755445092463
aF0.9985474561707146
aI1
aa(lp20
F0.5052306335948864
aF0.5829214269361055
aF0.9995264169314033
aF0.9990528336977961
aF0.4958470426232647
aF0.4986720464302168
aF0.9994917840769163
aF0.9987808685999271
aF0.4933078681020308
aF0.5122950063816707
aF0.9995165733157293
aF0.9987600375872818
aF0.4957203176674376
aF0.8566601758029425
aF0.9995104269485814
aF0.9988292695108621
aF0.5007072240035741
aF0.7694121156918281
aF0.9992075975153736
aF0.9984112218586942
aI1
aa(lp21
F0.505369021002788
aF0.588354712007855
aF0.9995280193561321
aF0.9990560380729817
aF0.49778087642901764
aF0.5425210302326531
aF0.9997314182122954
aF0.9993557142326034
aF0.4942781630351962
aF0.6675730860392349
aF0.9998260307467138
aF0.9995537785675
aF0.49861693241005045
aF0.7937488211583545
aF0.9998339276312335
aF0.9996028668196442
aF0.4987276250929728
aF0.797545204631598
aF0.9997045201503674
aF0.9994075595533866
aI1
aa(lp22
F0.5053751423024189
aF0.5886019469159395
aF0.9995280935489033
aF0.99905618644162
aF0.4983666359945615
aF0.5500381320246056
aF0.9998571926785699
aF0.9996574276077672
aF0.49392653782149726
aF0.6584785816856655
aF0.9998844406535152
aF0.9997035967169725
aF0.4973329473657569
aF0.8148977557435816
aF0.9997895725165077
aF0.999496798661365
aF0.4975641733333783
aF0.821079264629371
aF0.9997227815374884
aF0.9994441723946456
aI1
aa(lp23
F0.505377116566313
aF0.5886818942296806
aF0.9995281173860966
aF0.9990562347965513
aF0.495349012159221
aF0.519413919665067
aF0.9997203593264604
aF0.9993291852935947
aF0.49330042857510426
aF0.5636345459323384
aF0.9997435145529893
aF0.999342129539481
aF0.49482374144323993
aF0.8816340422461374
aF0.9996210141739585
aF0.9990937204867465
aF0.49329643085202823
aF0.8578826644010393
aF0.9994357384203414
aF0.9988686483914525
aI1
aa(lp24
F0.5039642931622798
aF0.5657803828071173
aF0.9995118635454453
aF0.9990237268954033
aF0.496884255069735
aF0.48527527850154334
aF0.9997756450170268
aF0.9994618076256434
aF0.4932053795885012
aF0.5356642475053275
aF0.9998367484328171
aF0.9995812695211983
aF0.4983870849288163
aF0.7944936061316441
aF0.9997192460159261
aF0.9993286247401131
aF0.4979499476646107
aF0.803518591908734
aF0.9994858643299286
aF0.9989691506741016
aI1
aa(lp25
F0.503970049481936
aF0.5657612172844356
aF0.9995119111305399
aF0.9990238224019495
aF0.4985183898885563
aF0.5610099384529924
aF0.9996929433723534
aF0.9992634193498405
aF0.49387099774948245
aF0.6350069851857454
aF0.999823499674323
aF0.9995472872065857
aF0.4952654972792903
aF0.8612081914171147
aF0.9997951685770409
aF0.9995101806529979
aF0.4959697890826468
aF0.8907311095892568
aF0.9996081479747781
aF0.9992143319126289
aI1
aa(lp26
F0.5040101790836325
aF0.5165097128968933
aF0.9995115448602822
aF0.999023089038289
aF0.4976908615077288
aF0.5684783647315579
aF0.9994636575220343
aF0.998713397619938
aF0.49423342481235294
aF0.6244469554336874
aF0.9994948775553848
aF0.9987043887502774
aF0.4931832508368189
aF0.8997530780321144
aF0.9994464711776403
aF0.9986763295411335
aF0.49228837262001135
aF0.06978658945048759
aF0.9990790942447839
aF0.9981535694398092
aI1
aa(lp27
F0.5046208381468555
aF0.5711035426300287
aF0.9995126710207868
aF0.9990253418806542
aF0.4964023484757908
aF0.4920830044227861
aF0.9994200936602535
aF0.9986088945982883
aF0.49341898427372505
aF0.5142116394597757
aF0.9994759870817945
aF0.9986559360830879
aF0.4934999602131084
aF0.9402023815141607
aF0.9994753068454723
aF0.9987452852578474
aF0.49274853876245317
aF0.9226728456838901
aF0.9991504979954877
aF0.9982967364359377
aI1
aa(lp28
F0.5048589738727051
aF0.5568462159549362
aF0.9995215803176344
aF0.9990431600406141
aF0.49776618426705804
aF0.5675174462339163
aF0.9994883521552256
aF0.9987726359600118
aF0.49383908819984473
aF0.6498433122950286
aF0.9995024495821622
aF0.9987238110565106
aF0.4938309158561887
aF0.9654936378087149
aF0.9994773794125168
aF0.9987502403636768
aF0.4940969451254377
aF0.05945520021783438
aF0.9991148352046604
aF0.9982252288760988
aI1
aa(lp29
F0.504860905769965
aF0.5802547787434111
aF0.9995174128190872
aF0.9990348252383192
aF0.4968889489140327
aF0.542225195194313
aF0.999419437922329
aF0.9986073213000031
aF0.49417913979226247
aF0.6347491275112309
aF0.9994753023686388
aF0.9986541802205718
aF0.49409815075100666
aF0.8869531581870428
aF0.9994198222284896
aF0.9986126029246993
aF0.4926419367692319
aF0.01079919662007712
aF0.999008389892645
aF0.9980118075487519
aI1
aa(lp30
F0.5050699628488049
aF0.5895552113453796
aF0.9995155102052408
aF0.9990310203248945
aF0.4972645271049193
aF0.5865883219121382
aF0.9994196988542332
aF0.9986079468762901
aF0.49379578098047877
aF0.6922172236327351
aF0.999475173262875
aF0.998653848872549
aF0.49496493636001454
aF0.9448524054576545
aF0.9994211444952964
aF0.9986157650574473
aF0.495408198398515
aF0.04664007663455528
aF0.9990034208313548
aF0.9980018427701792
aI1
aa(lp31
F0.5063050819627504
aF0.6568656357596471
aF0.9995285606502372
aF0.999057120741339
aF0.4956712667900864
aF0.47843362157194147
aF0.9994880816489774
aF0.9987719867334452
aF0.4932292214315729
aF0.36952004982570014
aF0.9995328156272822
aF0.998801697846681
aF0.4944328514183779
aF0.9979527405575119
aF0.9994229003088254
aF0.9986199634666796
aF0.4959312923793055
aF0.9585048446812086
aF0.9990277019668015
aF0.9980505284968714
aI1
aa(lp32
F0.5044850847404282
aF0.59717546965983
aF0.9995766294079275
aF0.9991532587201142
aF0.49681041932250375
aF0.46823575642998694
aF0.9998278570297882
aF0.9995870563213566
aF0.49324626401204
aF0.4491871510729008
aF0.9998546542948115
aF0.9996271974212789
aF0.4947254984854884
aF0.9461864974834706
aF0.9995413461365142
aF0.9989032079167366
aF0.49523721636968576
aF0.9798263125168392
aF0.9991707809255348
aF0.9983374040572872
aI1
aa(lp33
F0.5045972690333084
aF0.5514306307834217
aF0.9995116276105642
aF0.9990232549530214
aF0.49716550422731404
aF0.5687600867410251
aF0.9994212589196892
aF0.9986116893709941
aF0.49407649485805344
aF0.649047068342113
aF0.9994779142980992
aF0.9986608794435509
aF0.49377849365504645
aF0.8785054957573911
aF0.9994254659761055
aF0.9986260988836514
aF0.49168240291496285
aF0.05961404851065721
aF0.9990833520246185
aF0.9981621085335319
aI1
aa(lp34
F0.5043911268600059
aF0.608511433374666
aF0.9995720701439195
aF0.9991441398414131
aF0.49671716857453363
aF0.47935864618741303
aF0.9997546701817994
aF0.9994114916040193
aF0.49325510834078184
aF0.4971462137121295
aF0.9997872655013909
aF0.9994543477508123
aF0.49407204630574086
aF0.9672364400498407
aF0.9997055784875417
aF0.9992959406312081
aF0.4940002440783941
aF0.9699939559921451
aF0.9994073601618643
aF0.9988117484515561
aI1
aa(lp35
F0.5046496966351545
aF0.612898455156076
aF0.9995200981622818
aF0.9990401962143078
aF0.4963626179299118
aF0.5825979410468723
aF0.999426374602206
aF0.9986239614474033
aF0.4940244845563135
aF0.690746139693215
aF0.9994860854425385
aF0.9986818375138777
aF0.49448703146129186
aF0.8841814223885262
aF0.9994259670967726
aF0.9986272971449477
aF0.49261976923739037
aF0.9943686418011463
aF0.9990368819072675
aF0.9980689334042464
aI1
aa(lp36
F0.5048956267764805
aF0.6191909116358648
aF0.9995703302205301
aF0.9991406601893834
aF0.4963801992045271
aF0.48329184923194685
aF0.9997160607606118
aF0.9993188739202821
aF0.49314855865211726
aF0.5661158469882824
aF0.9997358722915767
aF0.9993225286548897
aF0.4946139718550664
aF0.8923172882330433
aF0.9995751593033093
aF0.9989840667628149
aF0.49533541181476604
aF0.9418999424972523
aF0.9992189024956198
aF0.9984338895665087
aI1
aa(lp37
F0.5048026986564056
aF0.6077101986881396
aF0.9995174076020976
aF0.9990348148958297
aF0.4972856026544903
aF0.5954244489280996
aF0.9994338192860592
aF0.9986418203740726
aF0.4944108243768576
aF0.6632463927510914
aF0.9994928695519776
aF0.9986992385235642
aF0.49431040224452494
aF0.8492455549837756
aF0.9994312072044002
aF0.9986398279237411
aF0.4914621403231246
aF0.9605748570089366
aF0.9990797442683911
aF0.9981548744780141
aI1
aa(lp38
F0.503756947672893
aF0.5147034515073614
aF0.9995202932532191
aF0.9990405863049853
aF0.4969344799350464
aF0.5788741057140666
aF0.9994194031353714
aF0.9986072377768564
aF0.49421304257607196
aF0.6626127447856062
aF0.9994751449280358
aF0.9986537763716977
aF0.49418261868912994
aF0.8413412217633615
aF0.999418820600288
aF0.9986102075466265
aF0.49112346361004633
aF0.9472321222557064
aF0.9989860217453913
aF0.997966958056281
aI1
aa(lp39
F0.5049663628183831
aF0.5739791101478597
aF0.9995189842323708
aF0.9990379681190146
aF0.49629980709197463
aF0.4803780910399379
aF0.9998287060127705
aF0.9995890927048416
aF0.49307779530364304
aF0.5467658823463791
aF0.9998609885947849
aF0.9996434430588417
aF0.49552595217600465
aF0.8747951843475116
aF0.9995680428506754
aF0.9989670486948292
aF0.49624650520611957
aF0.906911583374042
aF0.9992116806963279
aF0.9984194077857669
aI1
aa(lp40
F0.5042557844636526
aF0.5974712267176373
aF0.9995163989926457
aF0.9990327975432294
aF0.4956561638215134
aF0.5554459492794718
aF0.999470264450829
aF0.9987292463032803
aF0.49321592640675366
aF0.6693925857143314
aF0.9995690167116288
aF0.9988945521027498
aF0.4942974151412931
aF0.947537661458761
aF0.9994946628500099
aF0.9987915712444825
aF0.49388413385238306
aF0.011828542451737858
aF0.9990909986078972
aF0.998177439229168
aI1
aa(lp41
F0.5046485494782684
aF0.6263068434386252
aF0.9995130579679697
aF0.9990261154740944
aF0.49544541962805866
aF0.5507036334998985
aF0.9995716841887293
aF0.9989725361395068
aF0.4934019280436559
aF0.7082538125680379
aF0.9995725356812436
aF0.9989035778730353
aF0.49561043529385235
aF0.8776914473731163
aF0.9994681829962723
aF0.9987282500787972
aF0.4949395547024324
aF0.911228948206617
aF0.9990452005343169
aF0.998085614071064
aI1
aa(lp42
F0.5042825435099906
aF0.6395423099342495
aF0.9995690849812335
aF0.999138169856537
aF0.4959610969550237
aF0.5563422035820443
aF0.9997835240103184
aF0.9994807081166368
aF0.4934575634835623
aF0.6802588671485948
aF0.999791233109749
aF0.9994645255163801
aF0.4951710044857376
aF0.8933225956127581
aF0.9996189008355824
aF0.9990886658339855
aF0.4949925283757292
aF0.9008866776171119
aF0.9992488924983678
aF0.9984940185634429
aI1
aa(lp43
F0.5051672132088876
aF0.652510317956603
aF0.9995120380593573
aF0.999024075812676
aF0.4959370416150091
aF0.6005237043284374
aF0.9994508047891149
aF0.9986825659643576
aF0.49405975171739913
aF0.7296565704649386
aF0.9994944821458945
aF0.99870337527139
aF0.4958161017364028
aF0.8661067393083508
aF0.9994442052437224
aF0.9986709111159108
aF0.49504091786622323
aF0.8876398204676734
aF0.9989873979829301
aF0.9979697178608884
aI1
aa(lp44
F0.5052663975687476
aF0.6352864676655711
aF0.9995124531767707
aF0.9990249059234291
aF0.49739947061262213
aF0.5958257168133702
aF0.999499047460179
aF0.9987982930299459
aF0.494872327313981
aF0.6982230020847258
aF0.9995567230403897
aF0.9988630193205483
aF0.4960201580178919
aF0.8400054393706732
aF0.9994727780782158
aF0.998739237620704
aF0.4931663733411263
aF0.8963653064140028
aF0.9991317746555693
aF0.9982591951190584
aI1
aa(lp45
F0.5035086700905826
aF0.519100570911647
aF0.9995156661109266
aF0.9990313322796576
aF0.49742262510332236
aF0.6151233280051774
aF0.9994194950227372
aF0.998607458108003
aF0.49505862098155456
aF0.6981791946950875
aF0.9994750962331878
aF0.9986536511675111
aF0.49500794603980774
aF0.8208453232872102
aF0.9994187110904648
aF0.9986099459288862
aF0.49134778398578927
aF0.9463141616836458
aF0.9990037294385544
aF0.998002462712347
aI1
aa(lp46
F0.5043064302883212
aF0.5164394791261874
aF0.999517456670695
aF0.9990349129928124
aF0.4967642600014142
aF0.4928591601277221
aF0.9994195574628092
aF0.9986076076255501
aF0.49363403918074805
aF0.5588189583249347
aF0.9994782680169497
aF0.9986617864893714
aF0.4935620619740087
aF0.901837761143842
aF0.9994339498954051
aF0.9986463867890033
aF0.4925009190325662
aF0.8765858823166728
aF0.9990156066659772
aF0.9980262761922221
aI1
aa(lp47
F0.5049952108795636
aF0.47694629105927194
aF0.9995156917594192
aF0.9990313832186515
aF0.4983375735248528
aF0.5449115290501476
aF0.9994851389973011
aF0.9987649278850743
aF0.4944869205429994
aF0.6456332412258085
aF0.9995421331537898
aF0.9988255974212598
aF0.49387015358571607
aF0.9231744518679093
aF0.9994731856195825
aF0.9987402130761627
aF0.49470274128909253
aF0.0434897683423405
aF0.9990053959679008
aF0.998005802442398
aI1
aa(lp48
F0.5044681603531415
aF0.5173464563434547
aF0.9995257134306764
aF0.9990514265981062
aF0.4965383824655087
aF0.5285990545045847
aF0.9994200125393284
aF0.9986086996317624
aF0.493386769616785
aF0.6138571701360104
aF0.9994751539434014
aF0.9986537990057847
aF0.49396091813771376
aF0.9442673118312958
aF0.9994209392876741
aF0.998615274024533
aF0.4927526112009205
aF0.03139440456847776
aF0.9990297945884022
aF0.9980547233773802
aI1
aa(lp49
F0.5040761176270304
aF0.5361084581361357
aF0.9995188938537937
aF0.9990377869452733
aF0.4965735395044434
aF0.5098448474918198
aF0.9994196601823456
aF0.9986078548647889
aF0.49333894446407595
aF0.5459602767913164
aF0.9994755905426165
aF0.9986549191704168
aF0.4935764942391486
aF0.9378120743088648
aF0.9994212507119746
aF0.9986160189387154
aF0.4913638989411273
aF0.9234851413744908
aF0.9990369480546789
aF0.9980690663730007
aI1
aa(lp50
F0.505187932526046
aF0.539587577791631
aF0.9995118169933705
aF0.9990236336996707
aF0.49695426814707677
aF0.5047211598757616
aF0.9998670735338067
aF0.9996811297992577
aF0.49318104815098796
aF0.6012703527114168
aF0.9998771681395299
aF0.9996849441463052
aF0.49420093763452466
aF0.9677693591213625
aF0.9998536977009765
aF0.9996501421530672
aF0.4946589522961664
aF0.9930878599748972
aF0.9997034204954882
aF0.9994053548309911
aI1
aa(lp51
F0.5015250301589261
aF0.5777044715368073
aF0.9995874264528989
aF0.9991748526410186
aF0.49535723733590276
aF0.5615325744481661
aF0.9994237430605521
aF0.9986176488037521
aF0.49336118441661814
aF0.7184066605147588
aF0.9994769811544889
aF0.99865848604135
aF0.49457846132383815
aF0.9265052413199188
aF0.9994199015080566
aF0.9986127922335319
aF0.49381251137406323
aF0.9687015331665375
aF0.9989386940627151
aF0.9978720652948974
aI1
aa(lp52
F0.503430011777872
aF0.5632470400104622
aF0.9995205425929391
aF0.9990410849139273
aF0.4958129767349166
aF0.5955686808953141
aF0.9994201880219495
aF0.9986091204774457
aF0.4936272354308839
aF0.7493460845459964
aF0.9994752917087483
aF0.9986541524574103
aF0.4948850754683779
aF0.9294512050029684
aF0.999418845612811
aF0.9986102670520843
aF0.4942695171385482
aF0.9869385745772684
aF0.9989362259062244
aF0.9978671168189676
aI1
aa(lp53
F0.5025271747111983
aF0.5743648784466587
aF0.9995361634415848
aF0.9990723270254738
aF0.49552379127088503
aF0.5842745237488517
aF0.9994198488111941
aF0.9986083070755156
aF0.4937961615889488
aF0.7171346437941365
aF0.9994760228621765
aF0.9986560279850816
aF0.49559815131545487
aF0.8688775567469058
aF0.999437316401939
aF0.998654437630494
aF0.49393093764267787
aF0.8572408858692667
aF0.9989741124876582
aF0.9979430799240944
aI1
aa(lp54
F0.5039991146768595
aF0.5535800305624737
aF0.9995126333276798
aF0.9990252664943907
aF0.4956457479592968
aF0.574330640826666
aF0.9998275603774
aF0.9995863446462028
aF0.49376845678969394
aF0.7099135730559597
aF0.999843208362065
aF0.9995978390860112
aF0.49642105978524875
aF0.8453175825744118
aF0.9994650922522307
aF0.9987208588701296
aF0.49729476066757883
aF0.8854990546736696
aF0.9990188033966567
aF0.9980326860470771
aI1
aa(lp55
F0.502426744264662
aF0.5295337637704414
aF0.9995115525148499
aF0.9990231045448049
aF0.4960118730419178
aF0.60700530356144
aF0.9994336651632673
aF0.9986414503803858
aF0.4949414466551748
aF0.7387088274336213
aF0.9994789224477102
aF0.9986634648721344
aF0.49601579471346013
aF0.843597703090246
aF0.9994249598220621
aF0.9986248881115455
aF0.4938167421569603
aF0.8987976492189502
aF0.9989911964228636
aF0.9979773331938491
aI1
aa(lp56
F0.5029936233518718
aF0.524618014889635
aF0.9995170147850264
aF0.9990340294147749
aF0.4961056306441324
aF0.5878239281714712
aF0.9994206627509292
aF0.9986102591193355
aF0.49489254757580947
aF0.7307755322088014
aF0.9994764083945279
aF0.9986570166403459
aF0.49643759372509116
aF0.8311685957888756
aF0.9994188618474042
aF0.9986103063484278
aF0.49627389503553143
aF0.8410545975840628
aF0.9989367101731984
aF0.9978680881241402
aI1
aa(lp57
F0.5033795944430711
aF0.5309875260353478
aF0.9995253300175465
aF0.9990506592249002
aF0.4966572305069185
aF0.5874153092200802
aF0.9994226246392713
aF0.9986149656149761
aF0.4940454281201553
aF0.6761653596312803
aF0.9995285618224546
aF0.998790787653158
aF0.49698634509343853
aF0.8343187079732639
aF0.9995393229645716
aF0.9988983689152976
aF0.49976880936598533
aF0.800246018620252
aF0.9991221052807739
aF0.9982398088362369
aI1
aa(lp58
F0.5032049669741591
aF0.5690272293508708
aF0.9995195161432461
aF0.9990390320633644
aF0.49796755931181297
aF0.6250440310852412
aF0.9994827289984823
aF0.9987591466675714
aF0.49633205890908255
aF0.7303526044302765
aF0.9997622949930296
aF0.9993903000468135
aF0.4965724641845741
aF0.8256613024447111
aF0.9997576076527749
aF0.9994203601572063
aF0.497735137900065
aF0.8695488393763918
aF0.9995572567773223
aF0.9991122945112889
aI1
aa(lp59
F0.5053410245052536
aF0.5331731492468613
aF0.9995324720144808
aF0.9990649440309172
aF0.4979647569185399
aF0.5545674716433158
aF0.9994216043801328
aF0.9986125180995632
aF0.49402928268461344
aF0.6145382692948295
aF0.999479651371181
aF0.9986653353963886
aF0.49330917500117066
aF0.8644738440461284
aF0.999428396379501
aF0.9986331067224399
aF0.4919382732313452
aF0.07106248959661549
aF0.9990530350935246
aF0.9981013205974899
aI1
aa(lp60
F0.5053393941128488
aF0.5832742735705941
aF0.9995115503381163
aF0.9990231004079775
aF0.49766223809723104
aF0.5087298235174432
aF0.9994218122458911
aF0.9986130168654679
aF0.49354411495774014
aF0.5499557322253629
aF0.9994774874570153
aF0.9986597844546956
aF0.49383609837510595
aF0.8810233660644367
aF0.9994778570267882
aF0.9987513838057632
aF0.4928368678562991
aF0.8976435834420431
aF0.999168983933363
aF0.9983338002533897
aI1
aa(lp61
F0.5023064531915982
aF0.48842900491230207
aF0.9994663459350939
aF0.9989326914951976
aF0.49551486904764236
aF0.5317959515452357
aF0.9993679059678425
aF0.998483703944271
aF0.49299337335221877
aF0.6349632832115955
aF0.9994282999403081
aF0.9985336211614977
aF0.4935274298417
aF0.9292648245561506
aF0.9993665889197711
aF0.9984853042899625
aF0.4918214669310039
aF0.9686733915712422
aF0.9988392535370056
aF0.9976726851047989
aI1
aa(lp62
F0.5023814259657156
aF0.4816950429598761
aF0.9994664391031985
aF0.9989328777053136
aF0.4953894810537449
aF0.5487429711986763
aF0.9993681980804022
aF0.9984844044606291
aF0.493245443759762
aF0.6866653646394215
aF0.999428810612298
aF0.9985349314338229
aF0.49426432700450224
aF0.8906970455044819
aF0.9993649083545865
aF0.9984812858921606
aF0.49267865558834956
aF0.931493187060639
aF0.9988372962429748
aF0.9976687607572859
aI1
aa(lp63
F0.5025914193878246
aF0.4860729991282156
aF0.9994678998662986
aF0.9989357993214847
aF0.4953046256118798
aF0.5552562862620795
aF0.9993684714257411
aF0.9984850603543449
aF0.49327472118960114
aF0.6988386959299085
aF0.9994288892899688
aF0.9985351329769151
aF0.4944099504297936
aF0.8909073721091052
aF0.9993649876696585
aF0.9984814749977229
aF0.49275369306209776
aF0.9191059326870826
aF0.9988373877637803
aF0.9976689437174617
aI1
aa(lp64
F0.50238153368823
aF0.4927539717064221
aF0.9994687739275333
aF0.9989375473369652
aF0.49521146100307983
aF0.5538246864644966
aF0.9993682612380632
aF0.9984845559562059
aF0.49325557957474514
aF0.6973571940975315
aF0.9994291564104134
aF0.998535818085702
aF0.49437869320279826
aF0.8832635346980645
aF0.9993648636056349
aF0.9984811787345548
aF0.4926010086520774
aF0.9130218079559778
aF0.9988373433455664
aF0.9976688548805428
aI1
aa(lp65
F0.5022129433740075
aF0.4925579826201387
aF0.9994687436416627
aF0.9989374868899464
aF0.4952360329983828
aF0.5555721775956695
aF0.9993676150780464
aF0.9984830058477824
aF0.493297866724434
aF0.6954574354269092
aF0.9994287935926024
aF0.9985348873905612
aF0.49439255423712725
aF0.8812658092669463
aF0.9993648798054814
aF0.9984812173141985
aF0.49255967347756396
aF0.9113569744642563
aF0.9988373352753838
aF0.99766883865794
aI1
aa(lp66
F0.5021871065234568
aF0.4915809350764419
aF0.9994688912380572
aF0.9989377821064643
aF0.4952432640053527
aF0.5553515878893036
aF0.9993672947568063
aF0.9984822377467605
aF0.4933013511005306
aF0.6933033552590162
aF0.9994286318862072
aF0.9985344725086891
aF0.4943742215084279
aF0.8829874590960207
aF0.9993649135321256
aF0.9984812976901322
aF0.49268661179899975
aF0.9190866446375786
aF0.9988372778853193
aF0.9976687237093105
aI1
aa(lp67
F0.5022421852292016
aF0.4912007206585932
aF0.9994676080027457
aF0.9989352152728456
aF0.49519944679757627
aF0.5556564349087983
aF0.9993680910482526
aF0.9984841476313062
aF0.49328593657915915
aF0.6958524784055796
aF0.9994296665026574
aF0.9985371264960267
aF0.4943813451022042
aF0.8791649095238641
aF0.9993669488929844
aF0.9984861651424737
aF0.4926216527134226
aF0.9052034863012033
aF0.9988399486159161
aF0.9976740785635223
aI1
aa(lp68
F0.5022716535975607
aF0.493376393984905
aF0.9994673199857924
aF0.9989346396846951
aF0.4952869515809108
aF0.5556605275742875
aF0.9993686482285045
aF0.9984854840218573
aF0.49327648570275123
aF0.6985188005633577
aF0.9994304958687384
aF0.9985392538433716
aF0.49416047923282375
aF0.8914347525276002
aF0.9993724616940255
aF0.9984993480196033
aF0.49241182337316663
aF0.9142489656860202
aF0.9989074125772669
aF0.9978093443356536
aI1
aa(lp69
F0.5024163383801841
aF0.4988011090422525
aF0.9994669658812031
aF0.99893393134888
aF0.49544203733966335
aF0.5551975222615846
aF0.9993683863395957
aF0.9984848562544747
aF0.49324467854300996
aF0.7040049217010599
aF0.9994302600753301
aF0.9985386490907231
aF0.49410687748028453
aF0.8969312499384068
aF0.9993723100709242
aF0.9984989851585424
aF0.49268502489284355
aF0.9421552523849879
aF0.9992469700805348
aF0.9984901644183838
aI1
aa(lp70
F0.5028951147261029
aF0.49916301119629514
aF0.999510846891547
aF0.9990216936004694
aF0.4958455926651762
aF0.5560629320880727
aF0.9994193332817168
aF0.9986070701673062
aF0.4935723543302668
aF0.7156181070819222
aF0.9994761047568491
aF0.9986562379909812
aF0.4943522153872119
aF0.91948398407756
aF0.9994621740164952
aF0.9987138796304902
aF0.4948431469026884
aF0.006709014125779582
aF0.9997399474990886
aF0.999478592388723
aI1
aa(lp71
F0.5031152914385285
aF0.4984791331532854
aF0.9995161070783208
aF0.9990322139480382
aF0.49588724283491653
aF0.5579674558518718
aF0.9994249031758885
aF0.9986204315537893
aF0.4936543248880869
aF0.7188207032516456
aF0.9994811929971342
aF0.9986692889172049
aF0.4945725900593181
aF0.9264819112896087
aF0.9994804239378527
aF0.9987575219864494
aF0.4952144481550337
aF0.9995337255859077
aF0.9998159088680997
aF0.9996308954269681
aI1
aa(lp72
F0.5032111305964719
aF0.4968807877623163
aF0.9995165452744839
aF0.9990330902701581
aF0.49590676446471815
aF0.5577477765126394
aF0.9994253089269032
aF0.9986214048723409
aF0.4936645953582186
aF0.7149222860188607
aF0.9994817252037457
aF0.9986706547214447
aF0.4947581835837962
aF0.9338570283411565
aF0.999489048836401
aF0.9987781461694277
aF0.49547041355618093
aF0.0034554299689288598
aF0.9998615444117123
aF0.9997223933489152
aI1
aa(lp73
F0.5032093068344917
aF0.4931594604186907
aF0.9995166478191357
aF0.9990332953215372
aF0.4958360111072647
aF0.5455834963046486
aF0.9994284730171434
aF0.9986289954332442
aF0.49352234750126067
aF0.7034116362487575
aF0.9994853193463169
aF0.9986798728238576
aF0.4947416773958023
aF0.94109595942581
aF0.999489082860581
aF0.9987782281852775
aF0.4954678223684415
aF0.020186889200039835
aF0.999888712050926
aF0.9997768672873858
aI1
aa(lp74
F0.5031402207079294
aF0.492398149049713
aF0.9995164375947359
aF0.9990328751230371
aF0.49583282831005393
aF0.5453161169652996
aF0.999429048831121
aF0.9986303764406949
aF0.4935359274059821
aF0.7026744806233628
aF0.9994850564636254
aF0.9986791992232539
aF0.49477244157766154
aF0.9404193784685881
aF0.9994861076062923
aF0.9987711129071061
aF0.4954329931984394
aF0.026289242742613485
aF0.9998893050239327
aF0.9997780541737861
aI1
aa(lp75
F0.5032640043717707
aF0.49324097317603094
aF0.9995172667678452
aF0.9990345333804506
aF0.49582414113866385
aF0.5430614188663023
aF0.9994282190509048
aF0.9986283858850503
aF0.4936945394884568
aF0.6948684424313973
aF0.9994811797984385
aF0.9986692551616848
aF0.49483962597210374
aF0.9428755946662947
aF0.9994628510055041
aF0.9987154989443956
aF0.49572352862224844
aF0.003298947068688112
aF0.9998032008205988
aF0.9996054140446504
aI1
aa(lp76
F0.5032638355679436
aF0.5285744127463446
aF0.9995164808126481
aF0.9990329613981966
aF0.49561217437767263
aF0.5518902475192083
aF0.9996743633672643
aF0.9992188487280382
aF0.49400400202330025
aF0.713281952806098
aF0.9998215236691984
aF0.999542217986396
aF0.4956493207604914
aF0.8597003930192367
aF0.9998099396036594
aF0.9995455031354871
aF0.4961619400211468
aF0.8939710331816823
aF0.9996440074654592
aF0.9992862305346144
aI1
aa(lp77
F0.5038619316981908
aF0.5377510830738086
aF0.9995184139593268
aF0.9990368275405546
aF0.49577028151940516
aF0.4974668596156457
aF0.9997616508985029
aF0.9994282378871298
aF0.4932220765881133
aF0.6321849446195776
aF0.9999318522085198
aF0.9998252045861159
aF0.4942327616068938
aF0.9572155839720715
aF0.999924409850313
aF0.9998192396930474
aF0.4987837488601955
aF0.8271631221822547
aF0.9996083756260904
aF0.9992147874895496
aI1
aa(lp78
F0.5043071044840458
aF0.54040103515984
aF0.99951843449119
aF0.9990368687068264
aF0.49671824765992856
aF0.49592313558893536
aF0.9998756289266953
aF0.9997016531297993
aF0.4946206817235621
aF0.7100049038986389
aF0.9999691130091333
aF0.9999207761571616
aF0.4954026486406472
aF0.8630253511727346
aF0.9999595707065776
aF0.9999033204704487
aF0.5003659882374997
aF0.7916658563648694
aF0.9995699791205218
aF0.9991378025036722
aI1
aa(lp79
F0.5045105113380912
aF0.5595102713905652
aF0.9995178961470976
aF0.9990357918956698
aF0.497435293469614
aF0.4794380908353702
aF0.9998974105471363
aF0.9997539034434143
aF0.49759465308253126
aF0.7394979452558257
aF0.9998641421092263
aF0.9996515321358237
aF0.49894319336230786
aF0.789248994863326
aF0.9998164461144061
aF0.9995610619718425
aF0.49994978963479814
aF0.8000648902106436
aF0.999594726981649
aF0.9991874216114033
aI1
aa(lp80
F0.5037054276336175
aF0.5875465387544332
aF0.9995171089033422
aF0.9990342175288488
aF0.49797808664162063
aF0.5442656195397422
aF0.9998548514470383
aF0.999651811071375
aF0.4996073869389393
aF0.7495882720412059
aF0.9997746210722728
aF0.9994219158350176
aF0.5003795649535385
aF0.7704066555012472
aF0.999749977608142
aF0.9994021141236176
aF0.4998865366588394
aF0.8013116333616652
aF0.9995993406539643
aF0.9991966722636205
aI1
aa(lp81
F0.503687941936047
aF0.6092822159132885
aF0.9995164079376692
aF0.9990328154545751
aF0.4998021759268351
aF0.6917099441609416
aF0.9999492247324434
aF0.9998781975449589
aF0.4984853749085696
aF0.742833444004824
aF0.9999606776689518
aF0.9998991406176586
aF0.49869631080265897
aF0.791996680670586
aF0.9999803665537094
aF0.9999530505805815
aF0.49987005920840216
aF0.8016358571738517
aF0.9996005428004736
aF0.9991990829263998
aI1
aa(lp82
F0.5047867038826718
aF0.650321428259277
aF0.9995164348995347
aF0.9990328695200689
aF0.5005865626203858
aF0.7337767255658572
aF0.9995959374234308
aF0.999030716509896
aF0.5004931458165096
aF0.7537759098821522
aF0.9999338770836818
aF0.9998303982228957
aF0.5012595012040859
aF0.7582485843290315
aF0.999939248619203
aF0.9998547236375597
aF0.499865106541846
aF0.8017332050228837
aF0.9996009039459588
aF0.9991998072120876
aI1
aa(lp83
F0.504525352390305
aF0.6399528150525492
aF0.9995356300072477
aF0.9990712598598378
aF0.5007422832149271
aF0.7316695677106818
aF0.999863796941925
aF0.9996732700760259
aF0.5007979169205058
aF0.7559192158868037
aF0.9998814432844779
aF0.9996959085853322
aF0.5014468700068293
aF0.7557812612766182
aF0.9998715028325446
aF0.999692720443821
aF0.4998617932488536
aF0.8017983733783374
aF0.9996011457787183
aF0.9992002920096367
aI1
aa(lp84
F0.5046490334072398
aF0.646232226053965
aF0.99952321057493
aF0.9990464208824239
aF0.500342256763028
aF0.7121672642478576
aF0.9998687136084521
aF0.9996850643792181
aF0.499590229935775
aF0.7489655630002943
aF0.999879313400818
aF0.9996904456787296
aF0.5004978680465935
aF0.7673759343262397
aF0.9998598793905648
aF0.9996649254798836
aF0.500875640963377
aF0.7804775118556604
aF0.9996911806567061
aF0.9993808129861618
aI1
aa(lp85
F0.5037133261064531
aF0.5883989860535346
aF0.9995164590184709
aF0.9990329177061551
aF0.49780601241404826
aF0.6094532848299464
aF0.9997748931800136
aF0.99946000379877
aF0.4978640046205189
aF0.7379993229969923
aF0.9998824160385934
aF0.9996984040593032
aF0.4982024622503465
aF0.7946277780633207
aF0.9998710212130723
aF0.9996915690190104
aF0.49799175838334653
aF0.8212901474517069
aF0.9997741558222084
aF0.999547179341236
aI1
aa(lp86
F0.5023099021763442
aF0.5500908386207592
aF0.9995169406235658
aF0.9990338809038183
aF0.49735785191447396
aF0.6539470138980921
aF0.9994320881558545
aF0.998637667507381
aF0.49626339271123415
aF0.736076436306461
aF0.9994851492171982
aF0.99867943636568
aF0.49700102035828936
aF0.8237114556792655
aF0.9994279892608031
aF0.9986321331041188
aF0.4951683716123019
aF0.8604217559564722
aF0.9989666044293453
aF0.9979280269201409
aI1
aa(lp87
F0.502724316202235
aF0.5627192747028069
aF0.9995161123242892
aF0.9990322242981178
aF0.4966537419089536
aF0.6326033239050165
aF0.9994434941470658
aF0.9986650278903622
aF0.49505583024061567
aF0.7268944539432297
aF0.9994922943811364
aF0.9986977634197001
aF0.49628602863612586
aF0.8296136505354984
aF0.9994311195652879
aF0.9986396188253617
aF0.49456677013318984
aF0.829962688185913
aF0.9989557148920523
aF0.9979061929013184
aI1
aa(lp88
F0.5029691972792499
aF0.5981647913286331
aF0.9995280207930909
aF0.999056041395915
aF0.4970379684986108
aF0.6040240789900299
aF0.999772240439993
aF0.9994536406593039
aF0.49476306243432533
aF0.7293639678378253
aF0.9997902159454376
aF0.9994619159862056
aF0.4972113114801158
aF0.8265019580728027
aF0.99959881197504
aF0.9990406266780676
aF0.496774369736124
aF0.8422162288433374
aF0.9992688687949349
aF0.9985340712186256
aI1
aa(lp89
F0.5034968336058586
aF0.6104951233692724
aF0.9995466475034035
aF0.9990932949097562
aF0.49626847602704144
aF0.6032396425150631
aF0.9999433258845823
aF0.9998640471707027
aF0.494433462694854
aF0.7082648916921317
aF0.9999369475784586
aF0.9998382736690102
aF0.49705538606897515
aF0.8213673588094172
aF0.9996931592939716
aF0.9992662429237165
aF0.4978388066737446
aF0.8588260960114837
aF0.9994322290277503
aF0.9988616112126776
aI1
aa(lp90
F0.5038820662219154
aF0.6273750160877185
aF0.9995545151037497
aF0.9991090300300332
aF0.49847304815791277
aF0.6388971609266824
aF0.9999408958778261
aF0.999858218509282
aF0.49626564596911643
aF0.7262064045909342
aF0.9999652419692678
aF0.9999108476298606
aF0.49822437258512847
aF0.8004231921969687
aF0.9997503164863968
aF0.9994029245333731
aF0.4990174298864044
aF0.8359121540321873
aF0.9995449260522336
aF0.9990875706079475
aI1
aa(lp91
F0.5035201406220469
aF0.6270871497352472
aF0.9995504735063179
aF0.9991009468962292
aF0.5002406750135745
aF0.7151140706493495
aF0.9996637922657299
aF0.9991934898403723
aF0.5001886588126867
aF0.751915063373072
aF0.9996934575273303
aF0.999213735673151
aF0.5012735318139442
aF0.7580022218678901
aF0.9996560824794948
aF0.9991775793692795
aF0.5015265264384182
aF0.7679864724259022
aF0.9993667510067731
aF0.998730326811144
aI1
aa(lp92
F0.503748738801294
aF0.6221895970016128
aF0.9995620832881775
aF0.9991241667413849
aF0.5009160794582507
aF0.738336035217358
aF0.9996448147225673
aF0.9991479655703578
aF0.5009630600462825
aF0.7562056268434529
aF0.9996814230597542
aF0.999182868666683
aF0.501870956549994
aF0.749582893150836
aF0.9996498975516149
aF0.9991627890967232
aF0.5021162776491427
aF0.7533961805593989
aF0.9993572554171599
aF0.9987112878121364
aI1
aa(lp93
F0.5038067553742187
aF0.6250019385107471
aF0.9995574216184369
aF0.9991148432425433
aF0.5007330852474897
aF0.7276073715467793
aF0.9996448023258206
aF0.9991479357800893
aF0.5003273174132303
aF0.7526653993115303
aF0.9996801988528163
aF0.9991797282898429
aF0.5018723500048659
aF0.7496731372339784
aF0.9996510920666379
aF0.9991656458961425
aF0.5021302794146411
aF0.7530652631578699
aF0.9993595728234567
aF0.9987159343677977
aI1
aa(lp94
F0.5038989531660889
aF0.6323053234655246
aF0.9995440119808205
aF0.9990880238406358
aF0.5003916722286241
aF0.7036644987216907
aF0.9996626107493589
aF0.9991906553742304
aF0.499240380316215
aF0.7463618955279411
aF0.9996977147042547
aF0.9992246554987321
aF0.501860896361634
aF0.7498754035815699
aF0.9996530316907271
aF0.9991702847961571
aF0.5021159996795203
aF0.7533700865320394
aF0.9993631804985998
aF0.9987231678216846
aI1
aa(lp95
F0.5046319578072933
aF0.6462614466565695
aF0.9995569000481493
aF0.9991138002561619
aF0.49996042144872554
aF0.7050064539299156
aF0.9997657631717272
aF0.9994381019600117
aF0.49829636987648956
aF0.7389309021415056
aF0.9997844880175999
aF0.9994472238021417
aF0.4987208384970209
aF0.7909286357528285
aF0.9997672935464431
aF0.9994435227580634
aF0.4998332312976601
aF0.8091611241344753
aF0.9996091164134073
aF0.9992162731413139
aI1
aa(lp96
F0.5045956978238753
aF0.6420897303001267
aF0.9996011544540757
aF0.99920230889549
aF0.4984403150327576
aF0.6817466144585995
aF0.9997878688792795
aF0.9994911304728923
aF0.49763622728269236
aF0.7347138405974871
aF0.9998063004206836
aF0.9995031714488265
aF0.49818495622817177
aF0.7974763472841994
aF0.9998026319154935
aF0.9995280282306094
aF0.4990629968431878
aF0.8282006445773793
aF0.9997022079093689
aF0.9994029229898063
aI1
aa(lp97
F0.503451760379043
aF0.6227977337565862
aF0.9996030358084417
aF0.9992060715788674
aF0.49696960733392237
aF0.6258607646997811
aF0.9996694934397324
aF0.9992071659630235
aF0.4949204613481922
aF0.7133101495500843
aF0.9996940887535731
aF0.9992153558225512
aF0.4959800916494848
aF0.8556065257648212
aF0.9996663819311645
aF0.9992022087366401
aF0.4949087384899065
aF0.8535135182341919
aF0.9994103223106763
aF0.9988176883662252
aI1
aa(lp98
F0.5036159795674986
aF0.53525791286671
aF0.9995407686255003
aF0.9990815368101699
aF0.4964768357562023
aF0.5969630021691322
aF0.999437475292618
aF0.9986505897420904
aF0.49446839294906375
aF0.6914496845183875
aF0.9994867428211557
aF0.9986835239257462
aF0.4950094144873662
aF0.8564497799048313
aF0.9994310483521857
aF0.9986394482772202
aF0.4928544256356336
aF0.8731987372834136
aF0.9989666097321361
aF0.9979280371014473
aI1
aa(lp99
F0.5032566850104049
aF0.5088213985816294
aF0.9995391105531323
aF0.99907822084236
aF0.4964843175376053
aF0.5692344843656387
aF0.9994250359847019
aF0.9986207498190443
aF0.4939072001829871
aF0.6769061100196399
aF0.9994800818313156
aF0.9986664390069551
aF0.4946528771559856
aF0.8695066979026717
aF0.9994239671593498
aF0.998622514788027
aF0.49258887728410244
aF0.8634931982038209
aF0.9989460904388742
aF0.9978868948333521
aI1
aa(lp100
F0.5042753075473168
aF0.5332468714380006
aF0.9995348380606396
aF0.9990696762818806
aF0.49632163820277403
aF0.5354661395123049
aF0.999436839574963
aF0.9986490648047761
aF0.4936514534477038
aF0.6284307850376417
aF0.9994910352817924
aF0.9986945342682009
aF0.4942668056827931
aF0.8808257676928747
aF0.999426545740437
aF0.9986286809192522
aF0.4926868860147599
aF0.8761944357580069
aF0.99895283499666
aF0.9979004178221316
aI1
aa(lp101
F0.5058908861981973
aF0.5744114631083005
aF0.9995244995520974
aF0.9990489989580656
aF0.49728278972960277
aF0.5109523011925782
aF0.9997677211941164
aF0.9994427988933573
aF0.4931806318297701
aF0.6136780171907713
aF0.9998016748091513
aF0.9994913066731348
aF0.4950171690444048
aF0.8896459089079728
aF0.999663106237361
aF0.9991943760236061
aF0.49453062711494955
aF0.9066286622946383
aF0.9993671639099653
aF0.9987311547328401
aI1
aa(lp102
F0.5057919737125913
aF0.5700971828286284
aF0.9995344701317993
aF0.9990689401510883
aF0.49736463527793295
aF0.4983588076606404
aF0.9998900170925091
aF0.9997361681145733
aF0.4931884401741684
aF0.5682484147712648
aF0.9999029873991216
aF0.9997511685695835
aF0.49492902071667444
aF0.896005102612487
aF0.9997660126795714
aF0.9994404594662553
aF0.49552404057551314
aF0.9320478063532247
aF0.9995786159373773
aF0.999155119446221
aI1
aa(lp103
F0.5056824541658601
aF0.5533848105906116
aF0.9995175972233543
aF0.9990351941697152
aF0.4972616025630374
aF0.5188956013276255
aF0.9994522512080388
aF0.9986860350506347
aF0.4934936930645461
aF0.6045517685094068
aF0.9995049790445183
aF0.99873029928499
aF0.493664650235051
aF0.917486645386938
aF0.99944789388166
aF0.9986797316906261
aF0.49209532434984526
aF0.9680262850937639
aF0.9989848045433771
aF0.9979645185901818
aI1
aa(lp104
F0.5048459059993331
aF0.5142328997048298
aF0.9995234401441113
aF0.9990468803004827
aF0.49643416722545924
aF0.507934147932935
aF0.9994253412445719
aF0.9986214823484245
aF0.4932869597716809
aF0.560052053307573
aF0.999480044217878
aF0.9986663426478234
aF0.49344353312280825
aF0.9473437913601889
aF0.9994242450549012
aF0.998623179434584
aF0.4917919663602357
aF0.9687258180766839
aF0.9989465939886062
aF0.9978879046040018
aI1
aa(lp105
F0.5040718218485851
aF0.49494430031055603
aF0.9995190101698852
aF0.9990380201867605
aF0.49611816500439104
aF0.5002692036103551
aF0.9994260588136539
aF0.9986232037382694
aF0.4932477840938555
aF0.541045097034952
aF0.9994806083887888
aF0.9986677895483416
aF0.49356304108126814
aF0.9597222557770606
aF0.9994245592037813
aF0.9986239302607931
aF0.4920647089848115
aF0.9857613651466917
aF0.9989461723196628
aF0.9978870596870851
aI1
aa(lp106
F0.5041130433461879
aF0.4973697764117677
aF0.9995191142585326
aF0.999038228313138
aF0.4961301607420698
aF0.5039561887713281
aF0.999426317539409
aF0.9986238241677134
aF0.4932847349905963
aF0.5487144549474496
aF0.9994806963374318
aF0.998668014805825
aF0.4935565463135628
aF0.9570232753117357
aF0.9994245898264418
aF0.9986240038646774
aF0.4920952252955013
aF0.9833912752489162
aF0.9989460014764682
aF0.9978867164154824
aI1
aa(lp107
F0.504215256930601
aF0.5
aF0.9995208574413365
aF0.9990417147516695
aF0.49612006045985274
aF0.5052823977748652
aF0.999426517807416
aF0.9986243046054848
aF0.49329943095466
aF0.5514940141556165
aF0.9994808522252944
aF0.9986684146753197
aF0.49356174252937396
aF0.9543068986882489
aF0.9994245418546043
aF0.9986238892660312
aF0.4921284907536404
aF0.9848465413126957
aF0.9989459595119236
aF0.9978866324635691
aI1
aa(lp108
F0.5041936176718049
aF0.49681373924363414
aF0.9995215242548663
aF0.9990430481891052
aF0.4961053253376485
aF0.5076123744575161
aF0.9994267191256344
aF0.9986247873467943
aF0.493343274014777
aF0.5702288693635809
aF0.9994814057367167
aF0.9986698346956007
aF0.49359977104440367
aF0.9478104014770834
aF0.9994246622469073
aF0.9986241770646491
aF0.4923427004183209
aF0.9771771297408036
aF0.998946090984813
aF0.9978868961456284
aI1
aa(lp109
F0.5047695845176774
aF0.5150463075333394
aF0.9995200537684282
aF0.999040107072651
aF0.49623415146985633
aF0.49641587495574285
aF0.9995150514796841
aF0.9988366838498877
aF0.49329765997128855
aF0.5452099815432473
aF0.9995747456806898
aF0.9989092478244572
aF0.4936946788878214
aF0.9599747197242492
aF0.9995301233220955
aF0.9988763701339254
aF0.4932458670914662
aF0.9653014538636463
aF0.9991422955999856
aF0.9982802910527409
aI1
aa(lp110
F0.5049620028397354
aF0.5245187437716111
aF0.9995239168061456
aF0.9990478333460417
aF0.4966364599892785
aF0.4783162469674791
aF0.9997349442025699
aF0.9993641730834404
aF0.4931507894018462
aF0.48461274843940405
aF0.9997783885204916
aF0.9994315801028818
aF0.493966734565906
aF0.9415456954580927
aF0.9997245799474874
aF0.9993413799997561
aF0.49376029510886577
aF0.9656743373018223
aF0.9995014207223293
aF0.9990003420096248
aI1
aa(lp111
F0.5052332072746883
aF0.5173338077503289
aF0.9995323127083705
aF0.9990646250486213
aF0.49728645067429883
aF0.4775816970712841
aF0.9999483277067273
aF0.9998760464439344
aF0.4931186889759373
aF0.5100313749150943
aF0.9999673365477992
aF0.9999162199255582
aF0.49401351295490376
aF0.9933456837754524
aF0.999961648854224
aF0.9999082894977758
aF0.4953540770215433
aF0.011215410579716268
aF0.999923959712038
aF0.9998475375440642
aI1
aa(lp112
F0.5052889533260784
aF0.5186717110148814
aF0.9995285102096781
aF0.9990570202573317
aF0.49778050781720073
aF0.49170419918897257
aF0.9999838319030953
aF0.9999612152810999
aF0.49334709157372925
aF0.5639780476858869
aF0.9999716990820283
aF0.9999274097847788
aF0.49406134152660436
aF0.9730193209572987
aF0.9999742395985858
aF0.9999383984044162
aF0.4957451608818244
aF0.008414936361310067
aF0.9999474995383714
aF0.9998947353361382
aI1
aa(lp113
F0.505519889455852
aF0.5304413607691151
aF0.9995306309748778
aF0.9990612619431326
aF0.4981332601794289
aF0.513823061127213
aF0.999982712670556
aF0.9999585302639837
aF0.4935527488358775
aF0.6211295318073968
aF0.9999750626279678
aF0.9999360374990658
aF0.4947898701428295
aF0.8952581760807545
aF0.9999615801362335
aF0.9999081254812467
aF0.4966746481185822
aF0.9432788940250055
aF0.9999363630972731
aF0.9998724075375047
aI1
aa(lp114
F0.5037920863800047
aF0.5667316959856665
aF0.9995216878260464
aF0.9990433751306079
aF0.4974081354142
aF0.5983587744745001
aF0.9997251121878928
aF0.9993405863980811
aF0.49494820387660915
aF0.6911053087533766
aF0.9997286941175502
aF0.9993041163043116
aF0.4967833252545816
aF0.8468881000251023
aF0.9994790751286804
aF0.9987542966095586
aF0.49493638162544895
aF0.9165204791279522
aF0.998952014418477
aF0.997898773437667
aI1
aa(lp115
F0.5036955103017923
aF0.5733193079437473
aF0.9995267923557912
aF0.9990535843807921
aF0.49750178307099757
aF0.606254059287734
aF0.9997231586901714
aF0.9993359002566798
aF0.4951207082555218
aF0.6923964495025193
aF0.9997266502562585
aF0.9992988743601023
aF0.4968180800471133
aF0.8455391561700688
aF0.999477058540037
aF0.9987494738618871
aF0.4944703101279606
aF0.9160450183905772
aF0.9989504660382221
aF0.9978956683327111
aI1
aa(lp116
F0.503010169630501
aF0.5723533424021099
aF0.9995383763889409
aF0.9990767525583335
aF0.49617328063627536
aF0.6089300474837152
aF0.9997120218918879
aF0.9993091854997822
aF0.49456553401903663
aF0.7247422388607301
aF0.9997357600072276
aF0.9993222400935304
aF0.49606231954422475
aF0.874727221794283
aF0.9994522303471316
aF0.9986901009692979
aF0.4935925944800744
aF0.8704689760235871
aF0.9989459667789766
aF0.9978866471285451
aI1
aa(lp117
F0.5031724288911917
aF0.5648523503902562
aF0.9995375169693443
aF0.9990750340569847
aF0.49590032441844994
aF0.5804289723636941
aF0.999759507722286
aF0.9994230967349929
aF0.4940586822398175
aF0.7231269261991388
aF0.9997915359321949
aF0.9994653011965047
aF0.4961199803157579
aF0.8667480841423404
aF0.9994261144222104
aF0.9986276498576792
aF0.4938626041953938
aF0.8708792770470652
aF0.9989453306580077
aF0.9978853717142235
aI1
aa(lp118
F0.5032467325813265
aF0.5567741112261718
aF0.9995404079289323
aF0.9990808155737797
aF0.49551314395902557
aF0.5732525999225031
aF0.9997543540408865
aF0.9994107335699798
aF0.49388389283054246
aF0.7196413328156451
aF0.999797993391668
aF0.9994818643612492
aF0.4959148224513397
aF0.8750047599416452
aF0.9994297233681633
aF0.9986362803948899
aF0.49368139212938333
aF0.8809642029980752
aF0.9989452806890935
aF0.9978852720314414
aI1
aa(lp119
F0.5034611051950925
aF0.5629727803505249
aF0.9995389070114448
aF0.9990778139613785
aF0.49543710520585155
aF0.5696544797385015
aF0.9997097136485883
aF0.9993036482267583
aF0.4938159617617397
aF0.7205826636064039
aF0.999763586107983
aF0.9993936107363001
aF0.4959071390048511
aF0.8745094004849397
aF0.999426157058831
aF0.998627751563067
aF0.4936593688321044
aF0.8922744949359326
aF0.9989451455338206
aF0.9978850004627491
aI1
aa(lp120
F0.5041321151944285
aF0.5321898693147146
aF0.9995264695235847
aF0.9990529389239471
aF0.4958788700055712
aF0.48747808126997894
aF0.9997244922687235
aF0.9993391008079151
aF0.4947598270923735
aF0.7148671876727831
aF0.9996932896566291
aF0.9992133051350388
aF0.4959737931645115
aF0.8724299903905222
aF0.9994450238201178
aF0.9986728680443946
aF0.4969090981907909
aF0.9295244449516894
aF0.998967659003601
aF0.9979301419441436
aI1
aa(lp121
F0.5037967314036963
aF0.5244881820015976
aF0.9995206597233484
aF0.9990413191439862
aF0.4961367709387107
aF0.49888191133417087
aF0.9997303862739187
aF0.9993532377723204
aF0.49540282079635356
aF0.7216196062417496
aF0.9996896346887096
aF0.9992039304110426
aF0.49611690511342077
aF0.8582588606309797
aF0.9994516388696035
aF0.9986886866843493
aF0.49709348549589255
aF0.9156863804419347
aF0.9989771970458619
aF0.9979492639327956
aI1
aa(lp122
F0.5036036450304521
aF0.5257619993465545
aF0.9995188991202598
aF0.9990377981772415
aF0.4963824763807726
aF0.5144642838358002
aF0.9997361396663603
aF0.999367039329443
aF0.4958753354728586
aF0.7255480705819634
aF0.9996938090475543
aF0.9992146372720707
aF0.49628876238606207
aF0.8496667814496449
aF0.9994538372087436
aF0.9986939435908381
aF0.49719760023491355
aF0.907920825840282
aF0.9989815128668685
aF0.9979579180199675
aI1
aa(lp123
F0.5034772484716464
aF0.528061044945012
aF0.9995182354720246
aF0.9990364712456158
aF0.49647019425773137
aF0.5241025155488193
aF0.9997346442964378
aF0.9993634533011159
aF0.4960398714779764
aF0.7264054029661355
aF0.9996912140918268
aF0.9992079810720392
aF0.4963872908416638
aF0.8454072971601369
aF0.9994532800357849
aF0.9986926116371367
aF0.49709687799309243
aF0.9082392398831245
aF0.9989744053449139
aF0.9979436671553333
aI1
aa(lp124
F0.5033314722448574
aF0.5312405389983649
aF0.9995229342959335
aF0.9990458683738959
aF0.4964561695782915
aF0.5375243421356742
aF0.9997277242248213
aF0.9993468527209113
aF0.49575530706535004
aF0.7226168641433708
aF0.9996957991081524
aF0.9992197420961655
aF0.4961110660775212
aF0.8555733423852581
aF0.9994430078976517
aF0.9986680476953709
aF0.49449776231993525
aF0.9158236760133307
aF0.9989689516018623
aF0.9979327321167626
aI1
aa(lp125
F0.5032867291508057
aF0.5322662352613349
aF0.9995338341398416
aF0.9990676683928195
aF0.49544103472723294
aF0.5424926735562847
aF0.9996733391829341
aF0.999216390454563
aF0.49513439423008093
aF0.715838026563813
aF0.9996963740364158
aF0.9992212166042884
aF0.4953751868944085
aF0.880224887047066
aF0.999433310738404
aF0.9986448583604681
aF0.4932957473658431
aF0.8889942400654073
aF0.9989539386613793
aF0.9979026311196028
aI1
aa(lp126
F0.5033297035611739
aF0.5373537981619968
aF0.9995383376048055
aF0.9990766745377737
aF0.49512444432791564
aF0.5328289794666391
aF0.9996359903517532
aF0.9991267971064699
aF0.4946160675022303
aF0.7097073838209773
aF0.9997070337283069
aF0.9992485582740764
aF0.4950856837565765
aF0.882994816860001
aF0.9994313059634707
aF0.9986400639212406
aF0.49316734705456866
aF0.8945261814686855
aF0.9989516974717031
aF0.9978981373782138
aI1
aa(lp127
F0.5033747298866714
aF0.5386908423211126
aF0.9995394611024101
aF0.9990789219638078
aF0.49519467916720694
aF0.5311729562676175
aF0.9996260900547584
aF0.9991030492702659
aF0.49443062897424195
aF0.7077591562017159
aF0.9997066515653434
aF0.9992475778684868
aF0.4950841179840819
aF0.8829936653178337
aF0.9994293383265415
aF0.9986353588247538
aF0.4931908037363394
aF0.8954301083626489
aF0.9989487366551761
aF0.9978922012266213
aI1
aa(lp128
F0.5035085223824556
aF0.542398722967328
aF0.9995389943415374
aF0.9990779884413289
aF0.49519932568505204
aF0.5263347223175497
aF0.9996183699137688
aF0.9990845275714014
aF0.4942909710785231
aF0.7068178893102509
aF0.99970829392217
aF0.9992517908587225
aF0.49512986774789175
aF0.8818680164049947
aF0.9994284598298638
aF0.9986332579567883
aF0.49333007968963716
aF0.8972393631434288
aF0.9989468625552814
aF0.9978884426647854
aI1
aa(lp129
F0.5034736816135715
aF0.5391857541217391
aF0.9995372179921643
aF0.9990744358312665
aF0.49511928496780316
aF0.5161970154206198
aF0.9996064828392859
aF0.9990560136400659
aF0.4942650559663603
aF0.7071079561244581
aF0.9997093337973909
aF0.9992544578770473
aF0.4952263631720041
aF0.8818573470671583
aF0.9994272081555727
aF0.9986302655777523
aF0.49346794532342386
aF0.9018219979263267
aF0.9989460033967903
aF0.9978867207616712
aI1
aa(lp130
F0.5035184718387574
aF0.528969445495412
aF0.9995321258614599
aF0.9990642511015136
aF0.49551219472253305
aF0.5212888423418757
aF0.9996311815735333
aF0.9991152617058496
aF0.49459121875936796
aF0.7110185097434641
aF0.9996767331080179
aF0.9991708391546784
aF0.4957446027029249
aF0.8751729533331664
aF0.9994306995465333
aF0.9986386144460623
aF0.4946330479216915
aF0.9083351895120879
aF0.9989485550271132
aF0.9978918360878061
aI1
aa(lp131
F0.5037861274838672
aF0.5374844813277104
aF0.9995259275732443
aF0.9990518551696842
aF0.49583788864979983
aF0.5327529809607703
aF0.9996462370425833
aF0.9991513792289531
aF0.49602866747138047
aF0.7139431491185096
aF0.9995752758739884
aF0.9989106062384775
aF0.49685868626294394
aF0.837251495771288
aF0.9994246065229845
aF0.9986240440691097
aF0.49741190788014883
aF0.8969312686530778
aF0.9989461637297318
aF0.9978870426087517
aI1
aa(lp132
F0.5037646498480515
aF0.5387327503727483
aF0.999525916232968
aF0.9990518318188149
aF0.49615676855629487
aF0.5409959349575841
aF0.9996523841978739
aF0.9991661242848375
aF0.49748931953527
aF0.7249060254395548
aF0.9995089543376968
aF0.9987404952098012
aF0.49705748696969815
aF0.8338202222563582
aF0.9994299279178359
aF0.9986367688253251
aF0.4977505359322139
aF0.8834863968835424
aF0.9989496950810038
aF0.9978941230197006
aI1
aa(lp133
F0.503831840730716
aF0.5429574792375285
aF0.999526650823129
aF0.9990533006548624
aF0.49628367408708135
aF0.5435290120696835
aF0.9996499075387505
aF0.9991601825698291
aF0.49746084586931333
aF0.7237116681592802
aF0.9995132981102168
aF0.9987516372315224
aF0.4970160488277546
aF0.8326631198389657
aF0.9994311049140658
aF0.9986395838893788
aF0.49768020646770017
aF0.8839423717763745
aF0.998950544719233
aF0.9978958261095406
aI1
aa(lp134
F0.5042427546462865
aF0.5242393983019926
aF0.9995042498660209
aF0.9990084994314141
aF0.4967679670962577
aF0.5326346199542865
aF0.9994723548265506
aF0.9987342605520987
aF0.4934527337917207
aF0.6288209984239819
aF0.9995120614855579
aF0.9987484649909204
aF0.4938747855648328
aF0.9332667195128075
aF0.9994514227607467
aF0.9986881696212628
aF0.49357257699034346
aF0.07039388021145349
aF0.9991033887435886
aF0.9982022816749843
aI1
aa(lp135
F0.5033028807439741
aF0.5062522647519399
aF0.9995024669824266
aF0.9990049337361323
aF0.4960143505938546
aF0.5676701930703582
aF0.9994072658371643
aF0.9985781223401843
aF0.49380637307341385
aF0.6982437787060957
aF0.9994642848752849
aF0.9986259203546842
aF0.4948988839873816
aF0.8844501157444212
aF0.9994061706235199
aF0.9985799571692038
aF0.49413712494756035
aF0.9230719109758599
aF0.9989126497223196
aF0.9978198457497666
aI1
aa(lp136
F0.5037350918321618
aF0.5966042248201208
aF0.999503455170405
aF0.9990069099431996
aF0.4956097600566355
aF0.557642969416747
aF0.999536049772008
aF0.998887055357612
aF0.49342573145944835
aF0.6896386447651912
aF0.9995684289598264
aF0.9988930453430891
aF0.4953881957595619
aF0.8852579815690574
aF0.9994744426924296
aF0.9987432180874501
aF0.495211406214664
aF0.9020680161925588
aF0.9990412233617714
aF0.9980776378921632
aI1
aa(lp137
F0.5044067470779842
aF0.6284302576366856
aF0.9995261860358119
aF0.9990523717136288
aF0.4962841284236602
aF0.5628783197903638
aF0.9997632159031413
aF0.9994319921329222
aF0.4934561783859631
aF0.6995158888103231
aF0.9997933250259531
aF0.9994698893065822
aF0.4961067239630963
aF0.8453615035988431
aF0.9997081690482107
aF0.999302136403076
aF0.4969469162719511
aF0.8857288540518046
aF0.9994596027895544
aF0.9989164966118463
aI1
aa(lp138
F0.5053036302998737
aF0.6542193416835581
aF0.999504907065801
aF0.9990098134582029
aF0.49904869407632285
aF0.6218627837015138
aF0.999759234041975
aF0.9994224398940266
aF0.4962708340239937
aF0.7284879153825959
aF0.9998079444523916
aF0.9995073879653238
aF0.49671362736089514
aF0.8258600375496965
aF0.9997718351500566
aF0.9994543826771377
aF0.49796875371762755
aF0.8684299293691642
aF0.9995721887479758
aF0.9991422326202273
aI1
aa(lp139
F0.5056762084456395
aF0.6708153601773537
aF0.9995050183674734
aF0.9990100364149571
aF0.4994742743739241
aF0.6437882292206023
aF0.9997782653893139
aF0.999468093195381
aF0.49594400274668615
aF0.7288136091606723
aF0.999803013700113
aF0.999494742184542
aF0.49671764444782834
aF0.8282044276800209
aF0.9997785778695601
aF0.9994705062351925
aF0.4979246281931951
aF0.8542186637362034
aF0.9995876210753354
aF0.9991731741786405
aI1
aa(lp140
F0.5055832989769204
aF0.6686648983547427
aF0.9995066253097599
aF0.9990132502906612
aF0.4994473540109134
aF0.6420700852648835
aF0.9997782477676926
aF0.9994680507713168
aF0.4963167289428603
aF0.7223492805376502
aF0.9997942211139437
aF0.9994721890494077
aF0.49839357289303465
aF0.7988151992722002
aF0.9997908582176455
aF0.9994998729931738
aF0.4990260339475108
aF0.8240266530254561
aF0.9996170809147451
aF0.9992322426707132
aI1
aa(lp141
F0.504853897571847
aF0.6501546455895687
aF0.9995068171606599
aF0.999013633822855
aF0.4984838127207365
aF0.6531277913078892
aF0.999627629460639
aF0.9991067401256409
aF0.4966218715102867
aF0.7284778703293163
aF0.9998168583028497
aF0.9995302520272874
aF0.49682132159177816
aF0.8224397518570666
aF0.9997882764610735
aF0.9994936987746986
aF0.4966875127067226
aF0.8560780596670774
aF0.9995978823203049
aF0.9991937485217158
aI1
aa(lp142
F0.5036957158553013
aF0.616140734721049
aF0.9995018775554683
aF0.9990037549361904
aF0.49820472612624506
aF0.6150299263218354
aF0.9995210756742998
aF0.998851134547832
aF0.4960176744837731
aF0.6994684739616426
aF0.999564693083122
aF0.9988834631309556
aF0.4960957640368863
aF0.8342989754888117
aF0.9995722963603487
aF0.9989772180026467
aF0.49550840422055936
aF0.8651494228603955
aF0.9992669996531033
aF0.99853032384329
aI1
aa(lp143
F0.5028707822570238
aF0.5871692873344792
aF0.9995027749876249
aF0.9990055496923502
aF0.49788112333664847
aF0.6522069611942266
aF0.9994070503241478
aF0.9985776057415849
aF0.49646709732787414
aF0.7102683237348361
aF0.9994636862907836
aF0.9986243850749558
aF0.4961342562507422
aF0.8114367755114754
aF0.9994060597625022
aF0.9985796920349695
aF0.49261982073117067
aF0.914474708156902
aF0.9990129424793454
aF0.9980209354475071
aI1
aa(lp144
F0.5030760436972403
aF0.5525045514865948
aF0.9995031874301443
aF0.9990063747624013
aF0.49693159015946764
aF0.6157088370468841
aF0.9994069043616486
aF0.9985772551756639
aF0.4947691221592392
aF0.6850714549778167
aF0.999463679207371
aF0.9986243669318019
aF0.49470039994954407
aF0.8359686213208398
aF0.9994060382374302
aF0.9985796405220803
aF0.4918886537138246
aF0.9258383101238844
aF0.9989284501435641
aF0.9978515265366696
aI1
aa(lp145
F0.5032583528916584
aF0.5457507887821966
aF0.9995028778610576
aF0.9990057555283146
aF0.4966790600312784
aF0.6095803560006245
aF0.9994068579201882
aF0.9985771433882386
aF0.49470983975836447
aF0.6891749567568642
aF0.9994636801240162
aF0.9986243689033001
aF0.49492164757554086
aF0.8372294502921622
aF0.9994060340946819
aF0.9985796307543326
aF0.492623771232776
aF0.8672596257137681
aF0.9989128117931133
aF0.9978201707751359
aI1
aa(lp146
F0.504135162143269
aF0.6201969008313708
aF0.9995106292365504
aF0.9990212581839301
aF0.4975526859845056
aF0.6111131976932811
aF0.9998057641922242
aF0.9995340587341695
aF0.4956492400267467
aF0.7178162105474856
aF0.9997887963465263
aF0.999458274880297
aF0.4963439597957732
aF0.8302336479648978
aF0.9997483418574902
aF0.9993982021070861
aF0.49588459235079235
aF0.8438326709365966
aF0.9995291372836533
aF0.9990559150777965
aI1
aa(lp147
F0.504055009439938
aF0.6367729118651063
aF0.9995178941749869
aF0.9990357880006605
aF0.4980570671769701
aF0.6477824656663936
aF0.9999043589407659
aF0.9997705726258221
aF0.49676462773365376
aF0.7294755389751428
aF0.9998940854683576
aF0.9997283354862428
aF0.4984734944257469
aF0.7950994945289237
aF0.999833171368013
aF0.9996010572681594
aF0.4985775019396986
aF0.8161130520665418
aF0.999691044152106
aF0.9993805393257311
aI1
aa(lp148
F0.5032556617766156
aF0.6254953474257603
aF0.9995644309818699
aF0.9991288617895763
aF0.5005404712667936
aF0.7246353275528737
aF0.9998517552087249
aF0.9996443841049151
aF0.5004697106240782
aF0.7533984864762626
aF0.9998753401646158
aF0.9996802547586986
aF0.5010371149421629
aF0.7616207444977887
aF0.999861099393625
aF0.9996678422763154
aF0.5009221653984112
aF0.7755479235271938
aF0.999741748848931
aF0.999482202677468
aI1
aa(lp149
F0.50264497476547
aF0.6181997917174589
aF0.9996208636732771
aF0.9992417272406091
aF0.5011201074842296
aF0.7446802219561343
aF0.999837461980176
aF0.9996100960491582
aF0.5011793990473608
aF0.7579329680572703
aF0.999870749987652
aF0.9996684811135375
aF0.5017665596371155
aF0.7516891708976459
aF0.9998635278178879
aF0.9996736502309069
aF0.5020293949414641
aF0.7543575033425525
aF0.9997539861087746
aF0.9995067389386785
aI1
aa(lp150
F0.502566926009731
aF0.6170837016811199
aF0.9996303249610475
aF0.9992606497335171
aF0.5004363802358976
aF0.7121019072018684
aF0.9997897827886527
aF0.99949572133673
aF0.49708006606149235
aF0.733953259877842
aF0.9997509790673133
aF0.9993612758450892
aF0.5017617738947833
aF0.7519265393893495
aF0.9998613576927224
aF0.9996684604788552
aF0.502061866933101
aF0.7536893815488804
aF0.999748218564022
aF0.9994951753108732
aI1
aa(lp151
F0.502448784360901
aF0.6140629334969586
aF0.9996263317253559
aF0.9992526629528762
aF0.5003570649169256
aF0.7084200319364472
aF0.9997751677147603
aF0.9994606623752749
aF0.49678675818049467
aF0.7319535672457292
aF0.9997388295846779
aF0.999330112376822
aF0.5017387728937626
aF0.7521304278289609
aF0.999846160260967
aF0.9996321184735214
aF0.5020444806973641
aF0.7539081619249902
aF0.9997200446037623
aF0.9994386854507994
aI1
aa(lp152
F0.5026452544307709
aF0.618143395957168
aF0.9996158292644675
aF0.9992316584948399
aF0.5000575961236402
aF0.6894146442420601
aF0.9997319288631488
aF0.9993569387376392
aF0.4980907572297473
aF0.7411527432550522
aF0.9997540030698516
aF0.9993690318476414
aF0.5016750393213679
aF0.7530481385570572
aF0.9998121332619373
aF0.9995507478712017
aF0.502012259103279
aF0.7550341190131106
aF0.9996570845688656
aF0.9993124508129998
aI1
aa(lp153
F0.503481300444581
aF0.6284937304403864
aF0.999537823300514
aF0.9990756464272555
aF0.5010063971698085
aF0.7354317187388623
aF0.999782184145033
aF0.9994774941762656
aF0.5010810478914665
aF0.7568992010174954
aF0.9998083251266541
aF0.9995083650163233
aF0.5011712028220893
aF0.7596469516546757
aF0.999789274828164
aF0.999496086640467
aF0.5014240104916883
aF0.7677771443819882
aF0.9996177059078796
aF0.9992334956134449
aI1
aa(lp154
F0.5015904096757771
aF0.5817263016150181
aF0.9995155006154691
aF0.9990310008994663
aF0.4981153833388398
aF0.6463295117588719
aF0.9996656125664433
aF0.9991978573561342
aF0.4964292121529143
aF0.7335236397210727
aF0.9997097816039489
aF0.9992556067660819
aF0.4966846232216358
aF0.8156103508502107
aF0.9996773359029225
aF0.9992284036748796
aF0.4952117719241
aF0.8453025084859718
aF0.9994665624678003
aF0.9989304500473197
aI1
aa(lp155
F0.5024240361974686
aF0.5613235238504546
aF0.9995008866752189
aF0.999001773174317
aF0.49641575416588407
aF0.6312703466097991
aF0.999447792389597
aF0.9986753390918092
aF0.49562474489709807
aF0.718398378496271
aF0.9994790928727337
aF0.9986639022938915
aF0.4955171874908273
aF0.8244645751111301
aF0.9994340676927616
aF0.9986466686283957
aF0.4926383864760318
aF0.8588620103634564
aF0.9990191758172834
aF0.9980334325678901
aI1
aa(lp156
F0.5036582609141188
aF0.5696605229958751
aF0.9995079730253336
aF0.9990159459797516
aF0.4967078595889147
aF0.6436963850979756
aF0.9994073029713912
aF0.9985782111686737
aF0.49557540069775385
aF0.7228874647133693
aF0.9994640890685516
aF0.9986254178991197
aF0.49597425337206674
aF0.8233306527030774
aF0.9994061733299278
aF0.9985799640546557
aF0.4937740754409101
aF0.8373725589091162
aF0.99891380836887
aF0.9978221686646189
aI1
aa(lp157
F0.503651295740854
aF0.5662607160040539
aF0.9995104878001004
aF0.9990209753847294
aF0.4967984840153039
aF0.6244491420053065
aF0.999406854462844
aF0.9985771354406711
aF0.49547643150403026
aF0.7010067198800577
aF0.9994636546202426
aF0.9986243043400805
aF0.495739994062306
aF0.8230541844648134
aF0.9994061429660881
aF0.9985798917446168
aF0.4948159341782951
aF0.8215284631785077
aF0.9989125875912596
aF0.9978197212586771
aI1
aa(lp158
F0.5048424588174313
aF0.5608807045661717
aF0.9995053604535737
aF0.9990107206085359
aF0.49720919976267663
aF0.5522127508835991
aF0.9994067829678078
aF0.9985769636485177
aF0.49459405194019074
aF0.6493368986306164
aF0.9994643871436881
aF0.9986261828302392
aF0.49611614400851217
aF0.8044441647813415
aF0.9994062548423392
aF0.9985801592289772
aF0.49621992250261254
aF0.8246683657077081
aF0.9989124784409622
aF0.9978195026045501
aI1
aa(lp159
F0.5053101347603492
aF0.5536124132848357
aF0.999501695052157
aF0.9990033897237365
aF0.49850628898315474
aF0.5398405427743144
aF0.999407212525198
aF0.9985779945725365
aF0.49444055820677096
aF0.63496764713235
aF0.999466342261224
aF0.9986311971340049
aF0.4968274898303776
aF0.7929339952733538
aF0.9994065005928908
aF0.998580746755443
aF0.49678823864781707
aF0.8026221848157257
aF0.9989124226115496
aF0.9978193909358781
aI1
aa(lp160
F0.505238295189424
aF0.5405710118998241
aF0.99950273126581
aF0.9990054623376398
aF0.4985688506417155
aF0.540390423918064
aF0.9994073992208687
aF0.9985784424913704
aF0.494514826720311
aF0.6382103938844591
aF0.9994669467941332
aF0.9986327483866143
aF0.4965414970592689
aF0.7957604478016694
aF0.999406817999536
aF0.998581505274825
aF0.4964236243305565
aF0.8099776982068467
aF0.9989139251575977
aF0.997822403282199
aI1
aa(lp161
F0.5051640870382943
aF0.5438254372668134
aF0.99950138647351
aF0.9990027726962684
aF0.49847337797893987
aF0.5356841815446611
aF0.9994245609890263
aF0.998619610983218
aF0.49582207586390353
aF0.6839095445777855
aF0.999465463030288
aF0.9986289425155953
aF0.4963870782028293
aF0.8091872235705491
aF0.9994103820442004
aF0.9985900286247712
aF0.49588252957302315
aF0.8423275250209281
aF0.9989247722870573
aF0.9978441517471945
aI1
aa(lp162
F0.5049824854343695
aF0.5435837026514062
aF0.9995034169690883
aF0.9990068336020456
aF0.4974354971172009
aF0.5734680543929229
aF0.9998869733799299
aF0.9997288663941233
aF0.4981484055590999
aF0.7307993072825313
aF0.9995153271236497
aF0.9987568415805415
aF0.49869970519086
aF0.7992320691084255
aF0.9994652311096899
aF0.9987211906155159
aF0.49854360440350365
aF0.8274737560526059
aF0.9990206891618175
aF0.9980364683500935
aI1
aa(lp163
F0.5045584482194445
aF0.5633678182116508
aF0.9995114306884324
aF0.9990228611932738
aF0.4978246662817357
aF0.6220746615406197
aF0.9998680384673237
aF0.9996834448281897
aF0.4987225986954513
aF0.7385383908079486
aF0.9995456791711144
aF0.9988346927688305
aF0.4990370224364762
aF0.7925997013025305
aF0.999495815582989
aF0.998794328334506
aF0.4991892670121811
aF0.8209550464784477
aF0.9990763480159705
aF0.9981480642629702
aI1
aa(lp164
F0.5028644296217946
aF0.5473606519437764
aF0.9995063474081061
aF0.9990126942210821
aF0.4976499092256299
aF0.653970895731533
aF0.9994104666989659
aF0.998585800609941
aF0.49751555585688534
aF0.7488352705484438
aF0.9994653126306459
aF0.9986285569362009
aF0.49871923291300335
aF0.8054643701362988
aF0.9994065975427586
aF0.9985809787686304
aF0.4965305782323298
aF0.8530361397135907
aF0.9989764650150292
aF0.9979477970924644
aI1
aa(lp165
F0.5035391252824925
aF0.5440062195655084
aF0.9995019830630781
aF0.9990039657461512
aF0.49769863211313214
aF0.6586194942369397
aF0.999406993743555
aF0.9985774692763209
aF0.4969852942723166
aF0.7477590858253572
aF0.9994639547111849
aF0.998625073469967
aF0.49785607806001464
aF0.8178850450631684
aF0.9994061172075379
aF0.9985798297482332
aF0.4965808508879745
aF0.8498942054198367
aF0.998913009571582
aF0.9978205672099191
aI1
aa(lp166
F0.5031606010944875
aF0.5773694843034244
aF0.9995011307406412
aF0.9990022610794101
aF0.49709636179615846
aF0.6316820621888571
aF0.9996918157165721
aF0.9992607140330714
aF0.4958441698730422
aF0.7398468889549568
aF0.9996552169707997
aF0.999115651294555
aF0.49682033432685874
aF0.832902211335826
aF0.9996156957519413
aF0.9990810011486984
aF0.49712603597381266
aF0.8717707222220041
aF0.9992556578511338
aF0.9985075843773076
aI1
aa(lp167
F0.5033535546200678
aF0.5849534853718622
aF0.9995023478361964
aF0.9990046954231167
aF0.49810122592090295
aF0.6219022948846491
aF0.9998369343923039
aF0.9996088304070607
aF0.49550551510677987
aF0.7273070590576646
aF0.9998462823938918
aF0.999605723523685
aF0.4963161090934861
aF0.8366303694036994
aF0.999825378808031
aF0.9995824230316044
aF0.49691450983374047
aF0.8750694121337041
aF0.9996777029458422
aF0.9993537900487806
aI1
aa(lp168
F0.5027130570760356
aF0.5392342939177027
aF0.9995081416301731
aF0.999016282818134
aF0.4970607150985366
aF0.5992875798785301
aF0.9994268835576006
aF0.9986251825953569
aF0.4948512117324555
aF0.722918767834236
aF0.9994854913521147
aF0.9986803140203904
aF0.4960645681840759
aF0.8536416510077978
aF0.9994368965303596
aF0.998653433020571
aF0.49459548824783534
aF0.9401860075850449
aF0.999425562117954
aF0.9988482447211149
aI1
aa(lp169
F0.5039208453624625
aF0.5588629530993794
aF0.9995024229991408
aF0.9990048457898527
aF0.49630155709236584
aF0.5735236484733781
aF0.9996136432966501
aF0.9990731905049556
aF0.4941306399707268
aF0.7115053185568935
aF0.9996224218627896
aF0.9990315329381342
aF0.4953227852186011
aF0.8855326304443053
aF0.9995810586405753
aF0.998998172787269
aF0.4945674600212874
aF0.9191550868245812
aF0.9992392335970048
aF0.9984746524333425
aI1
aa(lp170
F0.5039208404612195
aF0.5820538303413837
aF0.9995009067803998
aF0.9990018131987888
aF0.4974425127522674
aF0.5809232817094359
aF0.9998754015318211
aF0.9997011070375437
aF0.49430178666681673
aF0.7129543027166015
aF0.999866300823054
aF0.9996570687278552
aF0.49526726249796454
aF0.873954792459862
aF0.9998365617859001
aF0.9996091656535966
aF0.495694715330052
aF0.9094044511167373
aF0.999699201963881
aF0.9993968967471569
aI1
aa(lp171
F0.503169620042333
aF0.5505618818252277
aF0.9995013897168369
aF0.9990027792380418
aF0.4968449265798888
aF0.5956857549021992
aF0.9994233586188584
aF0.9986167260842402
aF0.4944319481574928
aF0.7284641031601985
aF0.9994767145680769
aF0.998657802131954
aF0.49589648261628827
aF0.8698403221293876
aF0.9994276949632032
aF0.9986314284258134
aF0.49443927510873087
aF0.9531041998431921
aF0.9993010869516605
aF0.9985986714643349
aI1
aa(lp172
F0.5035018176027924
aF0.5469657190062348
aF0.9995008925553948
aF0.9990017845426842
aF0.4965949572369713
aF0.5863156085437862
aF0.9994587897267468
aF0.9987017207885044
aF0.49457785380137564
aF0.7267140219415029
aF0.9994816930503495
aF0.9986705720604492
aF0.49577094633853774
aF0.8631613178485479
aF0.9994296955176788
aF0.9986362132884716
aF0.4940052122050179
aF0.9307006733544864
aF0.99905275931514
aF0.9981007673245269
aI1
aa(lp173
F0.5038691470232123
aF0.5710485820454739
aF0.9995015213324923
aF0.9990030423593659
aF0.497317099030707
aF0.5852167911755176
aF0.9998599101501258
aF0.99966394552854
aF0.49419443969181137
aF0.7171911283510373
aF0.9998691532179452
aF0.999664385005611
aF0.4953657075661053
aF0.870399418187872
aF0.9998083367276368
aF0.9995416701861123
aF0.4954972649301992
aF0.9025012511099096
aF0.9996304331019964
aF0.9992590127637305
aI1
aa(lp174
F0.5030715968289466
aF0.5490646672468824
aF0.9995017673414774
aF0.999003534343055
aF0.49691407672962556
aF0.5962171870214377
aF0.999448293496385
aF0.9986765406241325
aF0.4945589657513037
aF0.7222666041132123
aF0.9994917365531939
aF0.9986963338957933
aF0.49588902824687225
aF0.8729648264906995
aF0.9994547622132671
aF0.9986961550436217
aF0.4945921566746788
aF0.9359185471514241
aF0.9994144460780752
aF0.9988259577673646
aI1
aa(lp175
F0.5032913089151351
aF0.5460827396221792
aF0.9995009225908393
aF0.9990018451161188
aF0.4965534083258373
aF0.5788654675679495
aF0.9994603087795111
aF0.9987053652193295
aF0.4943921354605132
aF0.7232311776478141
aF0.9994791647120204
aF0.998664086419292
aF0.49575911091121333
aF0.873855075235879
aF0.9994304958764996
aF0.9986381267480849
aF0.49407887869541783
aF0.9156484320748456
aF0.999017967548882
aF0.9980310100626941
aI1
aa(lp176
F0.5043055044696876
aF0.5619468035306524
aF0.9995008909419411
aF0.9990017815771023
aF0.4974053339595561
aF0.5239056548138727
aF0.9999145643266273
aF0.9997950532550336
aF0.49327702092271547
aF0.672213974111012
aF0.9999118806919879
aF0.9997739796057039
aF0.49424876892062986
aF0.9410628428142068
aF0.9998834590393018
aF0.9997213117817524
aF0.4951336353787279
aF0.9722389258960259
aF0.9997771704484423
aF0.9995532254490556
aI1
aa(lp177
F0.5040177688280469
aF0.5542835897509427
aF0.9995030510319747
aF0.99900610185667
aF0.4974297762153692
aF0.5163588700634619
aF0.9999749571723338
aF0.9999399263784988
aF0.49330969615969966
aF0.6294812194053252
aF0.9999775718562274
aF0.9999424725221492
aF0.49406928538137146
aF0.9568919968305858
aF0.9999620796782698
aF0.9999093197813783
aF0.49594822174012615
aF0.9877818117335595
aF0.9999403950678292
aF0.999880491023392
aI1
aa(lp178
F0.5043329881904917
aF0.567258203525456
aF0.9995023699218732
aF0.9990047394645096
aF0.49778927653397065
aF0.4756906081296045
aF0.9999702173798687
aF0.999928555493961
aF0.4931643843072118
aF0.49343042425961847
aF0.999974579525914
aF0.9999347981649925
aF0.4939461798088994
aF0.012136402314059212
aF0.9999713292232624
aF0.9999314385521237
aF0.4956850749108175
aF0.027547134366547446
aF0.9999359218851953
aF0.9998715219370328
aI1
aa(lp179
F0.5043650048672677
aF0.5658130125410007
aF0.9995024140591355
aF0.9990048278142915
aF0.4977505552925119
aF0.46564274710679227
aF0.9999716557191202
aF0.9999320054868422
aF0.49320664561250765
aF0.4566404507107598
aF0.9999665269298937
aF0.999914144058026
aF0.4939034725200977
aF0.027417552082263937
aF0.9999756818738003
aF0.9999418466479532
aF0.49559054644423123
aF0.04292167951229614
aF0.9999462724832355
aF0.999892274012992
aI1
aa(lp180
F0.5042811191805584
aF0.5627756812956854
aF0.9995032854705448
aF0.9990065706796969
aF0.49776280327038747
aF0.46628921973114773
aF0.9999830597566004
aF0.9999593640823702
aF0.49316681737110246
aF0.4815711357712294
aF0.999975972389786
aF0.9999383702366076
aF0.49392162389727906
aF0.031124565892919162
aF0.999980425395123
aF0.9999531911793521
aF0.49555010260362076
aF0.04801055930055856
aF0.9999490440980827
aF0.9998978329683654
aI1
aa(lp181
F0.5022778550060124
aF0.5177421735405965
aF0.9994865592265696
aF0.998973117842601
aF0.49547381187172507
aF0.5170039267419435
aF0.9993967650976513
aF0.9985529321907318
aF0.49295969214074414
aF0.6017254452264669
aF0.9994531926372284
aF0.9985974696858633
aF0.49355133813086705
aF0.956225534422825
aF0.9993940700690679
aF0.9985510210131466
aF0.4919704398056519
aF0.9800892369272307
aF0.9988846189683053
aF0.9977636441271218
aI1
aa(lp182
F0.5028850952390607
aF0.5105357486567609
aF0.9994888488304274
aF0.998977697353012
aF0.49520905593994413
aF0.5238996956742007
aF0.999396363224743
aF0.9985519685015122
aF0.49298318340208563
aF0.660909366500739
aF0.9994534373219285
aF0.9985980970726032
aF0.49402368488656606
aF0.9373185871455196
aF0.9993907679878685
aF0.9985431245224238
aF0.49260476446133994
aF0.9621185751725894
aF0.9988817577948393
aF0.9977579067961808
aI1
aa(lp183
F0.5029666924163161
aF0.5101331229051987
aF0.9994888077183383
aF0.9989776150276171
aF0.49515829288048435
aF0.524209931722389
aF0.9993958521546319
aF0.9985507420252483
aF0.4929675103512633
aF0.6641836423274163
aF0.9994529335514967
aF0.9985968049703402
aF0.4940010866718564
aF0.9481275231153233
aF0.999392777212043
aF0.9985479292927634
aF0.4926352390650459
aF0.9741162637507981
aF0.998882165565757
aF0.9977587243710468
aI1
aa(lp184
F0.5030074805851599
aF0.5067514264982399
aF0.9994899685893867
aF0.9989799365780238
aF0.49509825876761576
aF0.5136351064891858
aF0.9993975660354034
aF0.998554853868687
aF0.4929207499415334
aF0.6472846025965773
aF0.9994544791961624
aF0.9986007699195639
aF0.49394741652877305
aF0.9587986390276819
aF0.9993946095845961
aF0.9985523107891198
aF0.4926151747235526
aF0.9839460137725906
aF0.9988856439869913
aF0.9977656987882048
aI1
aa(lp185
F0.5028897886704831
aF0.5043492517163636
aF0.9994887009162324
aF0.998977401560466
aF0.4950314793491398
aF0.5052211529555426
aF0.9993997516562497
aF0.9985600969675184
aF0.49288233696521533
aF0.6256152423659743
aF0.9994565169255655
aF0.9986059962345507
aF0.4939464493084408
aF0.9694538279773023
aF0.9993965346344692
aF0.9985569146960095
aF0.4926808738905537
aF0.9965028732092585
aF0.9988891197401812
aF0.9977726678368214
aI1
aa(lp186
F0.5029334936083527
aF0.5077873475461847
aF0.9994886724292057
aF0.9989773443695931
aF0.49509885240459073
aF0.5038927035865355
aF0.9994053593475203
aF0.9985735484805693
aF0.4928952320025616
aF0.6080176771718934
aF0.999461796937537
aF0.9986195394856527
aF0.4940168989464539
aF0.9691350986721482
aF0.9994008830156001
aF0.9985673130426923
aF0.4929421891727339
aF0.9942418858079793
aF0.9988960866035496
aF0.9977866358407986
aI1
aa(lp187
F0.5029914600742441
aF0.5065950429964009
aF0.9994888975466515
aF0.9989777947061211
aF0.49508221284404963
aF0.4975351327421327
aF0.9994094010809729
aF0.9985832449264587
aF0.4928857236649065
aF0.5924764660465366
aF0.9994647936904157
aF0.9986272259524315
aF0.49398292433717284
aF0.9719221964807132
aF0.99940185505298
aF0.9985696372893783
aF0.4929396363993096
aF0.9975758985161669
aF0.998897077087776
aF0.99778862207913
aI1
aa(lp188
F0.5030325919522053
aF0.510462210485015
aF0.9994892881274466
aF0.9989785758685875
aF0.4950951803231907
aF0.4957256909469526
aF0.9994075858247558
aF0.9985788903187808
aF0.4928919568632127
aF0.5969075724926826
aF0.9994643538988781
aF0.9986260983566071
aF0.49396017461810743
aF0.973442688472961
aF0.9994041717203758
aF0.9985751773219906
aF0.49291752244060405
aF0.9992306860838455
aF0.9988998454203988
aF0.9977941725900229
aI1
aa(lp189
F0.5030845259878589
aF0.5130157518964654
aF0.9994900306175681
aF0.9989800607712279
aF0.495093052513359
aF0.4979877010430688
aF0.9994065916087919
aF0.9985765046813361
aF0.49290021445015186
aF0.6052698914981298
aF0.9994637676282687
aF0.9986245939034725
aF0.49396379424794856
aF0.9717293395512459
aF0.9994041374468758
aF0.9985750952600175
aF0.49290687821171086
aF0.9970072726457785
aF0.9988999613976802
aF0.9977944056796718
aI1
aa(lp190
F0.503100861489689
aF0.5138491733845864
aF0.9994903608606132
aF0.9989807211788934
aF0.49513341988542126
aF0.5
aF0.9994032768805056
aF0.9985685530612274
aF0.49291746070597003
aF0.6133079910682292
aF0.9994619773584593
aF0.9986200018055961
aF0.4939417715822918
aF0.9680849503005083
aF0.9994029277907562
aF0.9985722032577519
aF0.49286623291766457
aF0.9953228633796259
aF0.9988983961141316
aF0.9977912664921422
aI1
aa(lp191
F0.50299327983171
aF0.5206880259405334
aF0.9994883721871719
aF0.998976743769022
aF0.49487335798065984
aF0.47188799877123877
aF0.9996820037876096
aF0.9992371771447804
aF0.4932222987958453
aF0.6908965254494568
aF0.9994577996445894
aF0.9986092859271198
aF0.49466949369680757
aF0.933030347362645
aF0.9993971013609035
aF0.9985582691500017
aF0.4937447787204471
aF0.9591406575853667
aF0.9988893225841915
aF0.997773075127716
aI1
aa(lp192
F0.5029058782850513
aF0.5202615180016991
aF0.9994881161693202
aF0.9989762320076961
aF0.4947965665164589
aF0.4916615191912711
aF0.9996431140029862
aF0.9991438846722976
aF0.49334383024254197
aF0.7073665777260448
aF0.999455017232814
aF0.9986021493328162
aF0.49480858101941433
aF0.927035305474014
aF0.9993937919477761
aF0.9985503556987214
aF0.4938263322251467
aF0.9500191469623724
aF0.9988853701662906
aF0.9977651501144891
aI1
aa(lp193
F0.5028150764639736
aF0.5197748996492343
aF0.9994881451084665
aF0.998976289770075
aF0.4947409065931079
aF0.49365090167751935
aF0.9996739606833646
aF0.9992178823736366
aF0.4934549739855738
aF0.7132977146457609
aF0.9994556755361722
aF0.9986038380333986
aF0.49488250775206566
aF0.9250074291658665
aF0.9993928850145058
aF0.9985481865584126
aF0.49381942626235803
aF0.9481432234743752
aF0.9988838500157664
aF0.9977621014098971
aI1
aa(lp194
F0.5029260955743973
aF0.5172935282938129
aF0.9994889295063732
aF0.9989778584307181
aF0.4947473103883534
aF0.49636608821995865
aF0.9996922363302082
aF0.9992617245045113
aF0.49344997010003
aF0.7171488670939029
aF0.9994590238928253
aF0.9986124258852741
aF0.4950238121953589
aF0.9257800887669798
aF0.9993934568684412
aF0.9985495546700343
aF0.49405857237111633
aF0.9474210073186519
aF0.9988840226716651
aF0.9977624485748776
aI1
aa(lp195
F0.5030155625861298
aF0.5193688851745132
aF0.9994893302004237
aF0.998978660129869
aF0.494760621159402
aF0.4925187130637523
aF0.9997962114267639
aF0.9995111425580723
aF0.49341755921319275
aF0.7246171902778464
aF0.9994859508243865
aF0.9986814929112595
aF0.49528333264063135
aF0.9220058978885513
aF0.9993942699363214
aF0.9985514988414903
aF0.4941555699439386
aF0.9445251819341085
aF0.9988842217716595
aF0.9977628470979616
aI1
aa(lp196
F0.5031551716756569
aF0.5189721734930482
aF0.9994895903968538
aF0.9989791804874123
aF0.4948500733711916
aF0.49596071711526973
aF0.9998271098850907
aF0.9995852644662911
aF0.49340153732223097
aF0.7255381845762015
aF0.9994969169427479
aF0.9987096195723605
aF0.49550396893744403
aF0.9121854431771271
aF0.9993903780141026
aF0.998542192053485
aF0.49439587031499044
aF0.9360602464838177
aF0.9988816140048126
aF0.9977576192129517
aI1
aa(lp197
F0.5032050889669307
aF0.5199277846138023
aF0.9994897597758509
aF0.9989795190871454
aF0.494979224496617
aF0.5037865245715161
aF0.9998518288902974
aF0.9996445603324399
aF0.49349677764313
aF0.7226985015047697
aF0.9995179621349187
aF0.9987636007697303
aF0.4960169032135516
aF0.8898032734602033
aF0.9993889184154877
aF0.9985387013939739
aF0.4945650314798624
aF0.9186143958433753
aF0.9988812672906354
aF0.9977569239251611
aI1
aa(lp198
F0.5032449022216225
aF0.521302987187669
aF0.999488741041087
aF0.9989774813406448
aF0.49512698915679165
aF0.5153198855331643
aF0.9998684591147351
aF0.9996844539590133
aF0.49358930003940155
aF0.7259140066726086
aF0.9995254982327532
aF0.9987829286130985
aF0.4960166995827873
aF0.8856700623944008
aF0.9993893214672958
aF0.998539665660368
aF0.49458313706328755
aF0.9114270422025418
aF0.9988813027067295
aF0.997756994187669
aI1
aa(lp199
F0.5032095964495911
aF0.5220196317173438
aF0.9994882169301502
aF0.9989764333124956
aF0.49525300883615014
aF0.5210067232165847
aF0.9998806536982349
aF0.9997137064212078
aF0.49357152715506813
aF0.7314876514167964
aF0.999535225612777
aF0.9988078804810704
aF0.4958394034202812
aF0.888175094940255
aF0.9993915295977011
aF0.9985449456013291
aF0.49463521774893116
aF0.9151027408472234
aF0.9988818899301583
aF0.9977581715345506
aI1
aa.